

Microchip MPLAB XC8 Assembler V2.40 build 20220703182018 
                                                                                               Thu Sep 14 00:06:16 2023

Microchip MPLAB XC8 C Compiler v2.40 (Free license) build 20220703182018 Og1 
     1                           	processor	16F877A
     2                           	pagewidth 120
     3                           	opt	flic
     4                           	psect	idataBANK0,global,class=CODE,delta=2,noexec
     5                           	psect	idataBANK1,global,class=CODE,delta=2,noexec
     6                           	psect	idataBANK3,global,class=CODE,delta=2,noexec
     7                           	psect	strings,global,class=STRING,delta=2,noexec
     8                           	psect	stringtext,global,reloc=256,class=STRCODE,delta=2,noexec
     9                           	psect	cinit,global,class=CODE,merge=1,delta=2
    10                           	psect	bssCOMMON,global,class=COMMON,space=1,delta=1,noexec
    11                           	psect	bssBANK0,global,class=BANK0,space=1,delta=1,noexec
    12                           	psect	dataBANK0,global,class=BANK0,space=1,delta=1,noexec
    13                           	psect	bssBANK1,global,class=BANK1,space=1,delta=1,noexec
    14                           	psect	dataBANK1,global,class=BANK1,space=1,delta=1,noexec
    15                           	psect	bssBANK3,global,class=BANK3,space=1,delta=1,noexec
    16                           	psect	dataBANK3,global,class=BANK3,space=1,delta=1,noexec
    17                           	psect	inittext,global,class=CODE,delta=2
    18                           	psect	clrtext,global,class=CODE,delta=2
    19                           	psect	cstackBANK3,global,class=BANK3,space=1,delta=1,noexec
    20                           	psect	cstackCOMMON,global,class=COMMON,space=1,delta=1,noexec
    21                           	psect	cstackBANK0,global,class=BANK0,space=1,delta=1,noexec
    22                           	psect	maintext,global,class=CODE,split=1,delta=2
    23                           	psect	text1,local,class=CODE,merge=1,delta=2
    24                           	psect	text2,local,class=CODE,merge=1,delta=2,group=2
    25                           	psect	text3,local,class=CODE,merge=1,delta=2
    26                           	psect	text4,local,class=CODE,merge=1,delta=2
    27                           	psect	text5,local,class=CODE,merge=1,delta=2
    28                           	psect	text6,local,class=CODE,merge=1,delta=2
    29                           	psect	text7,local,class=CODE,merge=1,delta=2
    30                           	psect	text8,local,class=CODE,merge=1,delta=2
    31                           	psect	text9,local,class=CODE,merge=1,delta=2,group=2
    32                           	psect	text10,local,class=CODE,merge=1,delta=2
    33                           	psect	text11,local,class=CODE,merge=1,delta=2
    34                           	psect	text12,local,class=CODE,merge=1,delta=2
    35                           	psect	text13,local,class=CODE,merge=1,delta=2
    36                           	psect	text14,local,class=CODE,merge=1,delta=2
    37                           	psect	text15,local,class=CODE,merge=1,delta=2,group=1
    38                           	psect	text16,local,class=CODE,merge=1,delta=2
    39                           	psect	text17,local,class=CODE,merge=1,delta=2
    40                           	psect	text18,local,class=CODE,merge=1,delta=2
    41                           	psect	text19,local,class=CODE,merge=1,delta=2
    42                           	psect	text20,local,class=CODE,merge=1,delta=2
    43                           	psect	text21,local,class=CODE,merge=1,delta=2
    44                           	psect	text22,local,class=CODE,merge=1,delta=2
    45                           	psect	text23,local,class=CODE,merge=1,delta=2
    46                           	psect	text24,local,class=CODE,merge=1,delta=2
    47                           	psect	text25,local,class=CODE,merge=1,delta=2
    48                           	psect	text26,local,class=CODE,merge=1,delta=2,group=1
    49                           	psect	text27,local,class=CODE,merge=1,delta=2
    50                           	psect	text28,local,class=CODE,merge=1,delta=2,group=2
    51                           	psect	text29,local,class=CODE,merge=1,delta=2
    52                           	psect	text30,local,class=CODE,merge=1,delta=2
    53                           	psect	text31,local,class=CODE,merge=1,delta=2
    54                           	psect	text32,local,class=CODE,merge=1,delta=2
    55                           	psect	text33,local,class=CODE,merge=1,delta=2
    56                           	psect	text34,local,class=CODE,merge=1,delta=2,group=1
    57                           	psect	text35,local,class=CODE,merge=1,delta=2,group=1
    58                           	psect	text36,local,class=CODE,merge=1,delta=2
    59                           	psect	text37,local,class=CODE,merge=1,delta=2
    60                           	psect	text38,local,class=CODE,merge=1,delta=2,group=2
    61                           	psect	text39,local,class=CODE,merge=1,delta=2
    62                           	psect	text40,local,class=CODE,merge=1,delta=2
    63                           	psect	text41,local,class=CODE,merge=1,delta=2
    64                           	psect	text42,local,class=CODE,merge=1,delta=2
    65                           	psect	text43,local,class=CODE,merge=1,delta=2
    66                           	psect	text44,local,class=CODE,merge=1,delta=2
    67                           	psect	text45,local,class=CODE,merge=1,delta=2
    68                           	psect	text46,local,class=CODE,merge=1,delta=2
    69                           	psect	text47,local,class=CODE,merge=1,delta=2
    70                           	psect	text48,local,class=CODE,merge=1,delta=2
    71                           	psect	text49,local,class=CODE,merge=1,delta=2,group=1
    72                           	psect	text50,local,class=CODE,merge=1,delta=2
    73                           	psect	intentry,global,class=CODE,delta=2
    74                           	psect	config,global,abs,ovrld,class=CONFIG,space=4,delta=2,noexec
    75                           	dabs	1,0x7E,2
    76     0000                     
    77                           ; Version 2.20
    78                           ; Generated 12/02/2020 GMT
    79                           ; 
    80                           ; Copyright © 2020, Microchip Technology Inc. and its subsidiaries ("Microchip")
    81                           ; All rights reserved.
    82                           ; 
    83                           ; This software is developed by Microchip Technology Inc. and its subsidiaries ("Microch
      +                          ip").
    84                           ; 
    85                           ; Redistribution and use in source and binary forms, with or without modification, are
    86                           ; permitted provided that the following conditions are met:
    87                           ; 
    88                           ;     1. Redistributions of source code must retain the above copyright notice, this lis
      +                          t of
    89                           ;        conditions and the following disclaimer.
    90                           ; 
    91                           ;     2. Redistributions in binary form must reproduce the above copyright notice, this 
      +                          list
    92                           ;        of conditions and the following disclaimer in the documentation and/or other
    93                           ;        materials provided with the distribution.
    94                           ; 
    95                           ;     3. Microchip's name may not be used to endorse or promote products derived from th
      +                          is
    96                           ;        software without specific prior written permission.
    97                           ; 
    98                           ; THIS SOFTWARE IS PROVIDED BY MICROCHIP "AS IS" AND ANY EXPRESS OR IMPLIED WARRANTIES,
    99                           ; INCLUDING, BUT NOT LIMITED TO, THE IMPLIED WARRANTIES OF MERCHANTABILITY AND FITNESS F
      +                          OR
   100                           ; PURPOSE ARE DISCLAIMED.  IN NO EVENT SHALL MICROCHIP BE LIABLE FOR ANY DIRECT, INDIREC
      +                          T,
   101                           ; INCIDENTAL, SPECIAL, EXEMPLARY, OR CONSEQUENTIAL DAMAGES (INCLUDING BUT NOT LIMITED TO
   102                           ; PROCUREMENT OF SUBSTITUTE GOODS OR SERVICES; LOSS OF USE, DATA OR PROFITS; OR BUSINESS
   103                           ; INTERRUPTION) HOWSOEVER CAUSED AND ON ANY THEORY OF LIABILITY, WHETHER IN CONTRACT, ST
      +                          RICT
   104                           ; LIABILITY, OR TORT (INCLUDING NEGLIGENCE OR OTHERWISE) ARISING IN ANY WAY OUT OF THE U
      +                          SE OF
   105                           ; THIS SOFTWARE, EVEN IF ADVISED OF THE POSSIBILITY OF SUCH DAMAGE.
   106                           ; 
   107                           ; 
   108                           ; Code-generator required, PIC16F877A Definitions
   109                           ; 
   110                           ; SFR Addresses
   111     0000                     	;# 
   112     0001                     	;# 
   113     0002                     	;# 
   114     0003                     	;# 
   115     0004                     	;# 
   116     0005                     	;# 
   117     0006                     	;# 
   118     0007                     	;# 
   119     0008                     	;# 
   120     0009                     	;# 
   121     000A                     	;# 
   122     000B                     	;# 
   123     000C                     	;# 
   124     000D                     	;# 
   125     000E                     	;# 
   126     000E                     	;# 
   127     000F                     	;# 
   128     0010                     	;# 
   129     0011                     	;# 
   130     0012                     	;# 
   131     0013                     	;# 
   132     0014                     	;# 
   133     0015                     	;# 
   134     0015                     	;# 
   135     0016                     	;# 
   136     0017                     	;# 
   137     0018                     	;# 
   138     0019                     	;# 
   139     001A                     	;# 
   140     001B                     	;# 
   141     001B                     	;# 
   142     001C                     	;# 
   143     001D                     	;# 
   144     001E                     	;# 
   145     001F                     	;# 
   146     0081                     	;# 
   147     0085                     	;# 
   148     0086                     	;# 
   149     0087                     	;# 
   150     0088                     	;# 
   151     0089                     	;# 
   152     008C                     	;# 
   153     008D                     	;# 
   154     008E                     	;# 
   155     0091                     	;# 
   156     0092                     	;# 
   157     0093                     	;# 
   158     0094                     	;# 
   159     0098                     	;# 
   160     0099                     	;# 
   161     009C                     	;# 
   162     009D                     	;# 
   163     009E                     	;# 
   164     009F                     	;# 
   165     010C                     	;# 
   166     010D                     	;# 
   167     010E                     	;# 
   168     010F                     	;# 
   169     018C                     	;# 
   170     018D                     	;# 
   171     0000                     	;# 
   172     0001                     	;# 
   173     0002                     	;# 
   174     0003                     	;# 
   175     0004                     	;# 
   176     0005                     	;# 
   177     0006                     	;# 
   178     0007                     	;# 
   179     0008                     	;# 
   180     0009                     	;# 
   181     000A                     	;# 
   182     000B                     	;# 
   183     000C                     	;# 
   184     000D                     	;# 
   185     000E                     	;# 
   186     000E                     	;# 
   187     000F                     	;# 
   188     0010                     	;# 
   189     0011                     	;# 
   190     0012                     	;# 
   191     0013                     	;# 
   192     0014                     	;# 
   193     0015                     	;# 
   194     0015                     	;# 
   195     0016                     	;# 
   196     0017                     	;# 
   197     0018                     	;# 
   198     0019                     	;# 
   199     001A                     	;# 
   200     001B                     	;# 
   201     001B                     	;# 
   202     001C                     	;# 
   203     001D                     	;# 
   204     001E                     	;# 
   205     001F                     	;# 
   206     0081                     	;# 
   207     0085                     	;# 
   208     0086                     	;# 
   209     0087                     	;# 
   210     0088                     	;# 
   211     0089                     	;# 
   212     008C                     	;# 
   213     008D                     	;# 
   214     008E                     	;# 
   215     0091                     	;# 
   216     0092                     	;# 
   217     0093                     	;# 
   218     0094                     	;# 
   219     0098                     	;# 
   220     0099                     	;# 
   221     009C                     	;# 
   222     009D                     	;# 
   223     009E                     	;# 
   224     009F                     	;# 
   225     010C                     	;# 
   226     010D                     	;# 
   227     010E                     	;# 
   228     010F                     	;# 
   229     018C                     	;# 
   230     018D                     	;# 
   231     0000                     	;# 
   232     0001                     	;# 
   233     0002                     	;# 
   234     0003                     	;# 
   235     0004                     	;# 
   236     0005                     	;# 
   237     0006                     	;# 
   238     0007                     	;# 
   239     0008                     	;# 
   240     0009                     	;# 
   241     000A                     	;# 
   242     000B                     	;# 
   243     000C                     	;# 
   244     000D                     	;# 
   245     000E                     	;# 
   246     000E                     	;# 
   247     000F                     	;# 
   248     0010                     	;# 
   249     0011                     	;# 
   250     0012                     	;# 
   251     0013                     	;# 
   252     0014                     	;# 
   253     0015                     	;# 
   254     0015                     	;# 
   255     0016                     	;# 
   256     0017                     	;# 
   257     0018                     	;# 
   258     0019                     	;# 
   259     001A                     	;# 
   260     001B                     	;# 
   261     001B                     	;# 
   262     001C                     	;# 
   263     001D                     	;# 
   264     001E                     	;# 
   265     001F                     	;# 
   266     0081                     	;# 
   267     0085                     	;# 
   268     0086                     	;# 
   269     0087                     	;# 
   270     0088                     	;# 
   271     0089                     	;# 
   272     008C                     	;# 
   273     008D                     	;# 
   274     008E                     	;# 
   275     0091                     	;# 
   276     0092                     	;# 
   277     0093                     	;# 
   278     0094                     	;# 
   279     0098                     	;# 
   280     0099                     	;# 
   281     009C                     	;# 
   282     009D                     	;# 
   283     009E                     	;# 
   284     009F                     	;# 
   285     010C                     	;# 
   286     010D                     	;# 
   287     010E                     	;# 
   288     010F                     	;# 
   289     018C                     	;# 
   290     018D                     	;# 
   291     0000                     	;# 
   292     0001                     	;# 
   293     0002                     	;# 
   294     0003                     	;# 
   295     0004                     	;# 
   296     0005                     	;# 
   297     0006                     	;# 
   298     0007                     	;# 
   299     0008                     	;# 
   300     0009                     	;# 
   301     000A                     	;# 
   302     000B                     	;# 
   303     000C                     	;# 
   304     000D                     	;# 
   305     000E                     	;# 
   306     000E                     	;# 
   307     000F                     	;# 
   308     0010                     	;# 
   309     0011                     	;# 
   310     0012                     	;# 
   311     0013                     	;# 
   312     0014                     	;# 
   313     0015                     	;# 
   314     0015                     	;# 
   315     0016                     	;# 
   316     0017                     	;# 
   317     0018                     	;# 
   318     0019                     	;# 
   319     001A                     	;# 
   320     001B                     	;# 
   321     001B                     	;# 
   322     001C                     	;# 
   323     001D                     	;# 
   324     001E                     	;# 
   325     001F                     	;# 
   326     0081                     	;# 
   327     0085                     	;# 
   328     0086                     	;# 
   329     0087                     	;# 
   330     0088                     	;# 
   331     0089                     	;# 
   332     008C                     	;# 
   333     008D                     	;# 
   334     008E                     	;# 
   335     0091                     	;# 
   336     0092                     	;# 
   337     0093                     	;# 
   338     0094                     	;# 
   339     0098                     	;# 
   340     0099                     	;# 
   341     009C                     	;# 
   342     009D                     	;# 
   343     009E                     	;# 
   344     009F                     	;# 
   345     010C                     	;# 
   346     010D                     	;# 
   347     010E                     	;# 
   348     010F                     	;# 
   349     018C                     	;# 
   350     018D                     	;# 
   351     0000                     	;# 
   352     0001                     	;# 
   353     0002                     	;# 
   354     0003                     	;# 
   355     0004                     	;# 
   356     0005                     	;# 
   357     0006                     	;# 
   358     0007                     	;# 
   359     0008                     	;# 
   360     0009                     	;# 
   361     000A                     	;# 
   362     000B                     	;# 
   363     000C                     	;# 
   364     000D                     	;# 
   365     000E                     	;# 
   366     000E                     	;# 
   367     000F                     	;# 
   368     0010                     	;# 
   369     0011                     	;# 
   370     0012                     	;# 
   371     0013                     	;# 
   372     0014                     	;# 
   373     0015                     	;# 
   374     0015                     	;# 
   375     0016                     	;# 
   376     0017                     	;# 
   377     0018                     	;# 
   378     0019                     	;# 
   379     001A                     	;# 
   380     001B                     	;# 
   381     001B                     	;# 
   382     001C                     	;# 
   383     001D                     	;# 
   384     001E                     	;# 
   385     001F                     	;# 
   386     0081                     	;# 
   387     0085                     	;# 
   388     0086                     	;# 
   389     0087                     	;# 
   390     0088                     	;# 
   391     0089                     	;# 
   392     008C                     	;# 
   393     008D                     	;# 
   394     008E                     	;# 
   395     0091                     	;# 
   396     0092                     	;# 
   397     0093                     	;# 
   398     0094                     	;# 
   399     0098                     	;# 
   400     0099                     	;# 
   401     009C                     	;# 
   402     009D                     	;# 
   403     009E                     	;# 
   404     009F                     	;# 
   405     010C                     	;# 
   406     010D                     	;# 
   407     010E                     	;# 
   408     010F                     	;# 
   409     018C                     	;# 
   410     018D                     	;# 
   411     0000                     	;# 
   412     0001                     	;# 
   413     0002                     	;# 
   414     0003                     	;# 
   415     0004                     	;# 
   416     0005                     	;# 
   417     0006                     	;# 
   418     0007                     	;# 
   419     0008                     	;# 
   420     0009                     	;# 
   421     000A                     	;# 
   422     000B                     	;# 
   423     000C                     	;# 
   424     000D                     	;# 
   425     000E                     	;# 
   426     000E                     	;# 
   427     000F                     	;# 
   428     0010                     	;# 
   429     0011                     	;# 
   430     0012                     	;# 
   431     0013                     	;# 
   432     0014                     	;# 
   433     0015                     	;# 
   434     0015                     	;# 
   435     0016                     	;# 
   436     0017                     	;# 
   437     0018                     	;# 
   438     0019                     	;# 
   439     001A                     	;# 
   440     001B                     	;# 
   441     001B                     	;# 
   442     001C                     	;# 
   443     001D                     	;# 
   444     001E                     	;# 
   445     001F                     	;# 
   446     0081                     	;# 
   447     0085                     	;# 
   448     0086                     	;# 
   449     0087                     	;# 
   450     0088                     	;# 
   451     0089                     	;# 
   452     008C                     	;# 
   453     008D                     	;# 
   454     008E                     	;# 
   455     0091                     	;# 
   456     0092                     	;# 
   457     0093                     	;# 
   458     0094                     	;# 
   459     0098                     	;# 
   460     0099                     	;# 
   461     009C                     	;# 
   462     009D                     	;# 
   463     009E                     	;# 
   464     009F                     	;# 
   465     010C                     	;# 
   466     010D                     	;# 
   467     010E                     	;# 
   468     010F                     	;# 
   469     018C                     	;# 
   470     018D                     	;# 
   471     0000                     	;# 
   472     0001                     	;# 
   473     0002                     	;# 
   474     0003                     	;# 
   475     0004                     	;# 
   476     0005                     	;# 
   477     0006                     	;# 
   478     0007                     	;# 
   479     0008                     	;# 
   480     0009                     	;# 
   481     000A                     	;# 
   482     000B                     	;# 
   483     000C                     	;# 
   484     000D                     	;# 
   485     000E                     	;# 
   486     000E                     	;# 
   487     000F                     	;# 
   488     0010                     	;# 
   489     0011                     	;# 
   490     0012                     	;# 
   491     0013                     	;# 
   492     0014                     	;# 
   493     0015                     	;# 
   494     0015                     	;# 
   495     0016                     	;# 
   496     0017                     	;# 
   497     0018                     	;# 
   498     0019                     	;# 
   499     001A                     	;# 
   500     001B                     	;# 
   501     001B                     	;# 
   502     001C                     	;# 
   503     001D                     	;# 
   504     001E                     	;# 
   505     001F                     	;# 
   506     0081                     	;# 
   507     0085                     	;# 
   508     0086                     	;# 
   509     0087                     	;# 
   510     0088                     	;# 
   511     0089                     	;# 
   512     008C                     	;# 
   513     008D                     	;# 
   514     008E                     	;# 
   515     0091                     	;# 
   516     0092                     	;# 
   517     0093                     	;# 
   518     0094                     	;# 
   519     0098                     	;# 
   520     0099                     	;# 
   521     009C                     	;# 
   522     009D                     	;# 
   523     009E                     	;# 
   524     009F                     	;# 
   525     010C                     	;# 
   526     010D                     	;# 
   527     010E                     	;# 
   528     010F                     	;# 
   529     018C                     	;# 
   530     018D                     	;# 
   531     0000                     	;# 
   532     0001                     	;# 
   533     0002                     	;# 
   534     0003                     	;# 
   535     0004                     	;# 
   536     0005                     	;# 
   537     0006                     	;# 
   538     0007                     	;# 
   539     0008                     	;# 
   540     0009                     	;# 
   541     000A                     	;# 
   542     000B                     	;# 
   543     000C                     	;# 
   544     000D                     	;# 
   545     000E                     	;# 
   546     000E                     	;# 
   547     000F                     	;# 
   548     0010                     	;# 
   549     0011                     	;# 
   550     0012                     	;# 
   551     0013                     	;# 
   552     0014                     	;# 
   553     0015                     	;# 
   554     0015                     	;# 
   555     0016                     	;# 
   556     0017                     	;# 
   557     0018                     	;# 
   558     0019                     	;# 
   559     001A                     	;# 
   560     001B                     	;# 
   561     001B                     	;# 
   562     001C                     	;# 
   563     001D                     	;# 
   564     001E                     	;# 
   565     001F                     	;# 
   566     0081                     	;# 
   567     0085                     	;# 
   568     0086                     	;# 
   569     0087                     	;# 
   570     0088                     	;# 
   571     0089                     	;# 
   572     008C                     	;# 
   573     008D                     	;# 
   574     008E                     	;# 
   575     0091                     	;# 
   576     0092                     	;# 
   577     0093                     	;# 
   578     0094                     	;# 
   579     0098                     	;# 
   580     0099                     	;# 
   581     009C                     	;# 
   582     009D                     	;# 
   583     009E                     	;# 
   584     009F                     	;# 
   585     010C                     	;# 
   586     010D                     	;# 
   587     010E                     	;# 
   588     010F                     	;# 
   589     018C                     	;# 
   590     018D                     	;# 
   591     0000                     	;# 
   592     0001                     	;# 
   593     0002                     	;# 
   594     0003                     	;# 
   595     0004                     	;# 
   596     0005                     	;# 
   597     0006                     	;# 
   598     0007                     	;# 
   599     0008                     	;# 
   600     0009                     	;# 
   601     000A                     	;# 
   602     000B                     	;# 
   603     000C                     	;# 
   604     000D                     	;# 
   605     000E                     	;# 
   606     000E                     	;# 
   607     000F                     	;# 
   608     0010                     	;# 
   609     0011                     	;# 
   610     0012                     	;# 
   611     0013                     	;# 
   612     0014                     	;# 
   613     0015                     	;# 
   614     0015                     	;# 
   615     0016                     	;# 
   616     0017                     	;# 
   617     0018                     	;# 
   618     0019                     	;# 
   619     001A                     	;# 
   620     001B                     	;# 
   621     001B                     	;# 
   622     001C                     	;# 
   623     001D                     	;# 
   624     001E                     	;# 
   625     001F                     	;# 
   626     0081                     	;# 
   627     0085                     	;# 
   628     0086                     	;# 
   629     0087                     	;# 
   630     0088                     	;# 
   631     0089                     	;# 
   632     008C                     	;# 
   633     008D                     	;# 
   634     008E                     	;# 
   635     0091                     	;# 
   636     0092                     	;# 
   637     0093                     	;# 
   638     0094                     	;# 
   639     0098                     	;# 
   640     0099                     	;# 
   641     009C                     	;# 
   642     009D                     	;# 
   643     009E                     	;# 
   644     009F                     	;# 
   645     010C                     	;# 
   646     010D                     	;# 
   647     010E                     	;# 
   648     010F                     	;# 
   649     018C                     	;# 
   650     018D                     	;# 
   651     0000                     	;# 
   652     0001                     	;# 
   653     0002                     	;# 
   654     0003                     	;# 
   655     0004                     	;# 
   656     0005                     	;# 
   657     0006                     	;# 
   658     0007                     	;# 
   659     0008                     	;# 
   660     0009                     	;# 
   661     000A                     	;# 
   662     000B                     	;# 
   663     000C                     	;# 
   664     000D                     	;# 
   665     000E                     	;# 
   666     000E                     	;# 
   667     000F                     	;# 
   668     0010                     	;# 
   669     0011                     	;# 
   670     0012                     	;# 
   671     0013                     	;# 
   672     0014                     	;# 
   673     0015                     	;# 
   674     0015                     	;# 
   675     0016                     	;# 
   676     0017                     	;# 
   677     0018                     	;# 
   678     0019                     	;# 
   679     001A                     	;# 
   680     001B                     	;# 
   681     001B                     	;# 
   682     001C                     	;# 
   683     001D                     	;# 
   684     001E                     	;# 
   685     001F                     	;# 
   686     0081                     	;# 
   687     0085                     	;# 
   688     0086                     	;# 
   689     0087                     	;# 
   690     0088                     	;# 
   691     0089                     	;# 
   692     008C                     	;# 
   693     008D                     	;# 
   694     008E                     	;# 
   695     0091                     	;# 
   696     0092                     	;# 
   697     0093                     	;# 
   698     0094                     	;# 
   699     0098                     	;# 
   700     0099                     	;# 
   701     009C                     	;# 
   702     009D                     	;# 
   703     009E                     	;# 
   704     009F                     	;# 
   705     010C                     	;# 
   706     010D                     	;# 
   707     010E                     	;# 
   708     010F                     	;# 
   709     018C                     	;# 
   710     018D                     	;# 
   711     0000                     	;# 
   712     0001                     	;# 
   713     0002                     	;# 
   714     0003                     	;# 
   715     0004                     	;# 
   716     0005                     	;# 
   717     0006                     	;# 
   718     0007                     	;# 
   719     0008                     	;# 
   720     0009                     	;# 
   721     000A                     	;# 
   722     000B                     	;# 
   723     000C                     	;# 
   724     000D                     	;# 
   725     000E                     	;# 
   726     000E                     	;# 
   727     000F                     	;# 
   728     0010                     	;# 
   729     0011                     	;# 
   730     0012                     	;# 
   731     0013                     	;# 
   732     0014                     	;# 
   733     0015                     	;# 
   734     0015                     	;# 
   735     0016                     	;# 
   736     0017                     	;# 
   737     0018                     	;# 
   738     0019                     	;# 
   739     001A                     	;# 
   740     001B                     	;# 
   741     001B                     	;# 
   742     001C                     	;# 
   743     001D                     	;# 
   744     001E                     	;# 
   745     001F                     	;# 
   746     0081                     	;# 
   747     0085                     	;# 
   748     0086                     	;# 
   749     0087                     	;# 
   750     0088                     	;# 
   751     0089                     	;# 
   752     008C                     	;# 
   753     008D                     	;# 
   754     008E                     	;# 
   755     0091                     	;# 
   756     0092                     	;# 
   757     0093                     	;# 
   758     0094                     	;# 
   759     0098                     	;# 
   760     0099                     	;# 
   761     009C                     	;# 
   762     009D                     	;# 
   763     009E                     	;# 
   764     009F                     	;# 
   765     010C                     	;# 
   766     010D                     	;# 
   767     010E                     	;# 
   768     010F                     	;# 
   769     018C                     	;# 
   770     018D                     	;# 
   771     0000                     	;# 
   772     0001                     	;# 
   773     0002                     	;# 
   774     0003                     	;# 
   775     0004                     	;# 
   776     0005                     	;# 
   777     0006                     	;# 
   778     0007                     	;# 
   779     0008                     	;# 
   780     0009                     	;# 
   781     000A                     	;# 
   782     000B                     	;# 
   783     000C                     	;# 
   784     000D                     	;# 
   785     000E                     	;# 
   786     000E                     	;# 
   787     000F                     	;# 
   788     0010                     	;# 
   789     0011                     	;# 
   790     0012                     	;# 
   791     0013                     	;# 
   792     0014                     	;# 
   793     0015                     	;# 
   794     0015                     	;# 
   795     0016                     	;# 
   796     0017                     	;# 
   797     0018                     	;# 
   798     0019                     	;# 
   799     001A                     	;# 
   800     001B                     	;# 
   801     001B                     	;# 
   802     001C                     	;# 
   803     001D                     	;# 
   804     001E                     	;# 
   805     001F                     	;# 
   806     0081                     	;# 
   807     0085                     	;# 
   808     0086                     	;# 
   809     0087                     	;# 
   810     0088                     	;# 
   811     0089                     	;# 
   812     008C                     	;# 
   813     008D                     	;# 
   814     008E                     	;# 
   815     0091                     	;# 
   816     0092                     	;# 
   817     0093                     	;# 
   818     0094                     	;# 
   819     0098                     	;# 
   820     0099                     	;# 
   821     009C                     	;# 
   822     009D                     	;# 
   823     009E                     	;# 
   824     009F                     	;# 
   825     010C                     	;# 
   826     010D                     	;# 
   827     010E                     	;# 
   828     010F                     	;# 
   829     018C                     	;# 
   830     018D                     	;# 
   831                           
   832                           	psect	idataBANK0
   833     1207                     __pidataBANK0:
   834                           
   835                           ;initializer for download_log@num
   836     1207  34FF               	retlw	255
   837     1208  34FF               	retlw	255
   838                           
   839                           ;initializer for _pos2
   840     1209  34FF               	retlw	255
   841     120A  34FF               	retlw	255
   842                           
   843                           ;initializer for read_digital_keypad@longpressed
   844     120B  3401               	retlw	1
   845     120C  3400               	retlw	0
   846                           
   847                           ;initializer for login@attempts_rem
   848     120D  3403               	retlw	3
   849                           
   850                           ;initializer for set_time@blink
   851     120E  3401               	retlw	1
   852                           
   853                           ;initializer for set_time@position
   854     120F  3402               	retlw	2
   855                           
   856                           ;initializer for view_log@addr
   857     1210  3405               	retlw	5
   858                           
   859                           ;initializer for _pos
   860     1211  34FF               	retlw	255
   861                           
   862                           ;initializer for _return_time
   863     1212  3405               	retlw	5
   864                           
   865                           ;initializer for _control_flag
   866     1213  3401               	retlw	1
   867                           
   868                           	psect	idataBANK1
   869     11B7                     __pidataBANK1:
   870                           
   871                           ;initializer for _baud
   872     11B7  3480               	retlw	128
   873     11B8  3425               	retlw	37
   874     11B9  3400               	retlw	0
   875     11BA  3400               	retlw	0
   876                           
   877                           ;initializer for main@F1095
   878     11BB  344F               	retlw	79
   879     11BC  344E               	retlw	78
   880     11BD  3400               	retlw	0
   881                           
   882                           ;initializer for _pos1
   883     11BE  34FF               	retlw	255
   884                           
   885                           ;initializer for _memory_location
   886     11BF  3405               	retlw	5
   887                           
   888                           ;initializer for _addr
   889     11C0  3405               	retlw	5
   890                           
   891                           	psect	idataBANK3
   892     0802                     __pidataBANK3:
   893                           
   894                           ;initializer for main@F1093
   895     0802  3468               	retlw	low (STR_1| (0+32768))
   896     0803  3491               	retlw	high (STR_1| (0+32768))
   897     0804  3459               	retlw	low (STR_2| (0+32768))
   898     0805  3491               	retlw	high (STR_2| (0+32768))
   899     0806  345C               	retlw	low (STR_3| (0+32768))
   900     0807  3491               	retlw	high (STR_3| (0+32768))
   901     0808  345F               	retlw	low (STR_4| (0+32768))
   902     0809  3491               	retlw	high (STR_4| (0+32768))
   903     080A  3462               	retlw	low (STR_5| (0+32768))
   904     080B  3491               	retlw	high (STR_5| (0+32768))
   905     080C  346B               	retlw	low (STR_6| (0+32768))
   906     080D  3491               	retlw	high (STR_6| (0+32768))
   907                           
   908                           ;initializer for login_menu@F1154
   909     080E  342F               	retlw	low (STR_37| (0+32768))
   910     080F  3491               	retlw	high (STR_37| (0+32768))
   911     0810  3409               	retlw	low (STR_38| (0+32768))
   912     0811  3491               	retlw	high (STR_38| (0+32768))
   913     0812  34C1               	retlw	low (STR_39| (0+32768))
   914     0813  3490               	retlw	high (STR_39| (0+32768))
   915     0814  34F4               	retlw	low (STR_40| (0+32768))
   916     0815  3490               	retlw	high (STR_40| (0+32768))
   917     0816  3426               	retlw	low (STR_41| (0+32768))
   918     0817  3491               	retlw	high (STR_41| (0+32768))
   919     0019                     _TXREG	set	25
   920     001A                     _RCREG	set	26
   921     001E                     _ADRESH	set	30
   922     0006                     _PORTB	set	6
   923     0013                     _SSPBUF	set	19
   924     0008                     _PORTD	set	8
   925     0064                     _TXIF	set	100
   926     00C4                     _CREN	set	196
   927     00C7                     _SPEN	set	199
   928     0091                     _T2CKPS1	set	145
   929     0090                     _T2CKPS0	set	144
   930     00C1                     _OERR	set	193
   931     0065                     _RCIF	set	101
   932     0061                     _TMR2IF	set	97
   933     00FA                     _nDONE	set	250
   934     00FA                     _GO	set	250
   935     00F8                     _ADON	set	248
   936     00A5                     _SSPEN	set	165
   937     00A3                     _SSPM3	set	163
   938     0049                     _RE1	set	73
   939     004A                     _RE2	set	74
   940     0092                     _TMR2ON	set	146
   941     005E                     _PEIE	set	94
   942     005F                     _GIE	set	95
   943     0099                     _SPBRG	set	153
   944     0092                     _PR2	set	146
   945     009E                     _ADRESL	set	158
   946     0086                     _TRISB	set	134
   947     0091                     _SSPCON2	set	145
   948     0093                     _SSPADD	set	147
   949     0088                     _TRISD	set	136
   950     0465                     _RCIE	set	1125
   951     0461                     _TMR2IE	set	1121
   952     04FF                     _ADFM	set	1279
   953     048E                     _ACKSTAT	set	1166
   954     048C                     _ACKEN	set	1164
   955     048D                     _ACKDT	set	1165
   956     048B                     _RCEN	set	1163
   957     048A                     _PEN	set	1162
   958     0488                     _SEN	set	1160
   959     04A2                     _R_nW	set	1186
   960     0449                     _TRISE1	set	1097
   961     044A                     _TRISE2	set	1098
   962                           
   963                           	psect	strings
   964     116E                     __pstrings:
   965     116E                     stringtab:
   966     116E                     __stringtab:
   967                           
   968                           ;	String table - string pointers are 2 bytes each
   969     116E  1BFF               	btfsc	btemp+1,7
   970     116F  2978               	ljmp	stringcode
   971     1170  1383               	bcf	3,7
   972     1171  187F               	btfsc	btemp+1,0
   973     1172  1783               	bsf	3,7
   974     1173  0800               	movf	0,w
   975     1174  0A84               	incf	4,f
   976     1175  1903               	skipnz
   977     1176  0AFF               	incf	btemp+1,f
   978     1177  0008               	return
   979     1178                     stringcode:
   980     1178  087F               	movf	btemp+1,w
   981     1179  397F               	andlw	127
   982     117A  008A               	movwf	10
   983     117B  0804               	movf	4,w
   984     117C  0A84               	incf	4,f
   985     117D  1903               	skipnz
   986     117E  0AFF               	incf	btemp+1,f
   987     117F  0082               	movwf	2
   988     1180                     __stringbase:
   989     1180                     __end_of__stringtab:
   990                           
   991                           	psect	stringtext
   992     1000                     __pstringtext:
   993     1000                     STR_12:
   994     1000  344E               	retlw	78	;'N'
   995     1001  344F               	retlw	79	;'O'
   996     1002  3420               	retlw	32	;' '
   997     1003  344C               	retlw	76	;'L'
   998     1004  344F               	retlw	79	;'O'
   999     1005  3447               	retlw	71	;'G'
  1000     1006  3453               	retlw	83	;'S'
  1001     1007  3420               	retlw	32	;' '
  1002     1008  3441               	retlw	65	;'A'
  1003     1009  3456               	retlw	86	;'V'
  1004     100A  3441               	retlw	65	;'A'
  1005     100B  3449               	retlw	73	;'I'
  1006     100C  344C               	retlw	76	;'L'
  1007     100D  3441               	retlw	65	;'A'
  1008     100E  3442               	retlw	66	;'B'
  1009     100F  344C               	retlw	76	;'L'
  1010     1010  3445               	retlw	69	;'E'
  1011     1011  3400               	retlw	0
  1012     1012                     STR_20:
  1013     1012  3420               	retlw	32	;' '
  1014     1013  3420               	retlw	32	;' '
  1015     1014  3454               	retlw	84	;'T'
  1016     1015  3449               	retlw	73	;'I'
  1017     1016  344D               	retlw	77	;'M'
  1018     1017  3445               	retlw	69	;'E'
  1019     1018  3420               	retlw	32	;' '
  1020     1019  3420               	retlw	32	;' '
  1021     101A  3420               	retlw	32	;' '
  1022     101B  3420               	retlw	32	;' '
  1023     101C  3420               	retlw	32	;' '
  1024     101D  3445               	retlw	69	;'E'
  1025     101E  3420               	retlw	32	;' '
  1026     101F  3420               	retlw	32	;' '
  1027     1020  3453               	retlw	83	;'S'
  1028     1021  3450               	retlw	80	;'P'
  1029     1022  3400               	retlw	0
  1030     1023                     STR_18:
  1031     1023  3420               	retlw	32	;' '
  1032     1024  3420               	retlw	32	;' '
  1033     1025  3454               	retlw	84	;'T'
  1034     1026  3449               	retlw	73	;'I'
  1035     1027  344D               	retlw	77	;'M'
  1036     1028  3445               	retlw	69	;'E'
  1037     1029  3420               	retlw	32	;' '
  1038     102A  3443               	retlw	67	;'C'
  1039     102B  3448               	retlw	72	;'H'
  1040     102C  3441               	retlw	65	;'A'
  1041     102D  344E               	retlw	78	;'N'
  1042     102E  3447               	retlw	71	;'G'
  1043     102F  3445               	retlw	69	;'E'
  1044     1030  3444               	retlw	68	;'D'
  1045     1031  3420               	retlw	32	;' '
  1046     1032  3420               	retlw	32	;' '
  1047     1033  3400               	retlw	0
  1048     1034                     STR_19:
  1049     1034  3420               	retlw	32	;' '
  1050     1035  3420               	retlw	32	;' '
  1051     1036  3453               	retlw	83	;'S'
  1052     1037  3455               	retlw	85	;'U'
  1053     1038  3443               	retlw	67	;'C'
  1054     1039  3443               	retlw	67	;'C'
  1055     103A  3445               	retlw	69	;'E'
  1056     103B  3453               	retlw	83	;'S'
  1057     103C  3453               	retlw	83	;'S'
  1058     103D  3446               	retlw	70	;'F'
  1059     103E  3455               	retlw	85	;'U'
  1060     103F  344C               	retlw	76	;'L'
  1061     1040  344C               	retlw	76	;'L'
  1062     1041  3459               	retlw	89	;'Y'
  1063     1042  3420               	retlw	32	;' '
  1064     1043  3420               	retlw	32	;' '
  1065     1044  3400               	retlw	0
  1066     1045                     STR_31:
  1067     1045  3459               	retlw	89	;'Y'
  1068     1046  344F               	retlw	79	;'O'
  1069     1047  3455               	retlw	85	;'U'
  1070     1048  3420               	retlw	32	;' '
  1071     1049  3441               	retlw	65	;'A'
  1072     104A  3452               	retlw	82	;'R'
  1073     104B  3445               	retlw	69	;'E'
  1074     104C  3420               	retlw	32	;' '
  1075     104D  3442               	retlw	66	;'B'
  1076     104E  344C               	retlw	76	;'L'
  1077     104F  344F               	retlw	79	;'O'
  1078     1050  3443               	retlw	67	;'C'
  1079     1051  344B               	retlw	75	;'K'
  1080     1052  3445               	retlw	69	;'E'
  1081     1053  3444               	retlw	68	;'D'
  1082     1054  3400               	retlw	0
  1083     1055                     STR_29:
  1084     1055  344E               	retlw	78	;'N'
  1085     1056  344F               	retlw	79	;'O'
  1086     1057  3420               	retlw	32	;' '
  1087     1058  344C               	retlw	76	;'L'
  1088     1059  344F               	retlw	79	;'O'
  1089     105A  3447               	retlw	71	;'G'
  1090     105B  3453               	retlw	83	;'S'
  1091     105C  3420               	retlw	32	;' '
  1092     105D  3450               	retlw	80	;'P'
  1093     105E  3452               	retlw	82	;'R'
  1094     105F  3445               	retlw	69	;'E'
  1095     1060  3453               	retlw	83	;'S'
  1096     1061  3445               	retlw	69	;'E'
  1097     1062  344E               	retlw	78	;'N'
  1098     1063  3454               	retlw	84	;'T'
  1099     1064  3400               	retlw	0
  1100     1065                     STR_14:
  1101     1065  3450               	retlw	80	;'P'
  1102     1066  3457               	retlw	87	;'W'
  1103     1067  3444               	retlw	68	;'D'
  1104     1068  3420               	retlw	32	;' '
  1105     1069  344E               	retlw	78	;'N'
  1106     106A  344F               	retlw	79	;'O'
  1107     106B  3454               	retlw	84	;'T'
  1108     106C  3420               	retlw	32	;' '
  1109     106D  3443               	retlw	67	;'C'
  1110     106E  3448               	retlw	72	;'H'
  1111     106F  3441               	retlw	65	;'A'
  1112     1070  344E               	retlw	78	;'N'
  1113     1071  3447               	retlw	71	;'G'
  1114     1072  3445               	retlw	69	;'E'
  1115     1073  3444               	retlw	68	;'D'
  1116     1074  3400               	retlw	0
  1117     1075                     STR_9:
  1118     1075  3420               	retlw	32	;' '
  1119     1076  3445               	retlw	69	;'E'
  1120     1077  344E               	retlw	78	;'N'
  1121     1078  3454               	retlw	84	;'T'
  1122     1079  3445               	retlw	69	;'E'
  1123     107A  3452               	retlw	82	;'R'
  1124     107B  3420               	retlw	32	;' '
  1125     107C  3450               	retlw	80	;'P'
  1126     107D  3441               	retlw	65	;'A'
  1127     107E  3453               	retlw	83	;'S'
  1128     107F  3453               	retlw	83	;'S'
  1129     1080  3457               	retlw	87	;'W'
  1130     1081  344F               	retlw	79	;'O'
  1131     1082  3452               	retlw	82	;'R'
  1132     1083  3444               	retlw	68	;'D'
  1133     1084  3400               	retlw	0
  1134     1085                     STR_23:
  1135     1085  3420               	retlw	32	;' '
  1136     1086  3445               	retlw	69	;'E'
  1137     1087  344E               	retlw	78	;'N'
  1138     1088  3454               	retlw	84	;'T'
  1139     1089  3445               	retlw	69	;'E'
  1140     108A  3452               	retlw	82	;'R'
  1141     108B  3420               	retlw	32	;' '
  1142     108C  344E               	retlw	78	;'N'
  1143     108D  3445               	retlw	69	;'E'
  1144     108E  3457               	retlw	87	;'W'
  1145     108F  3420               	retlw	32	;' '
  1146     1090  3450               	retlw	80	;'P'
  1147     1091  3457               	retlw	87	;'W'
  1148     1092  3444               	retlw	68	;'D'
  1149     1093  3400               	retlw	0
  1150     1094                     STR_24:
  1151     1094  3452               	retlw	82	;'R'
  1152     1095  3445               	retlw	69	;'E'
  1153     1096  3445               	retlw	69	;'E'
  1154     1097  344E               	retlw	78	;'N'
  1155     1098  3454               	retlw	84	;'T'
  1156     1099  3445               	retlw	69	;'E'
  1157     109A  3452               	retlw	82	;'R'
  1158     109B  3420               	retlw	32	;' '
  1159     109C  344E               	retlw	78	;'N'
  1160     109D  3445               	retlw	69	;'E'
  1161     109E  3457               	retlw	87	;'W'
  1162     109F  3450               	retlw	80	;'P'
  1163     10A0  3457               	retlw	87	;'W'
  1164     10A1  3444               	retlw	68	;'D'
  1165     10A2  3400               	retlw	0
  1166     10A3                     STR_34:
  1167     10A3  3457               	retlw	87	;'W'
  1168     10A4  3472               	retlw	114	;'r'
  1169     10A5  346F               	retlw	111	;'o'
  1170     10A6  346E               	retlw	110	;'n'
  1171     10A7  3467               	retlw	103	;'g'
  1172     10A8  3420               	retlw	32	;' '
  1173     10A9  3450               	retlw	80	;'P'
  1174     10AA  3461               	retlw	97	;'a'
  1175     10AB  3473               	retlw	115	;'s'
  1176     10AC  3473               	retlw	115	;'s'
  1177     10AD  3477               	retlw	119	;'w'
  1178     10AE  346F               	retlw	111	;'o'
  1179     10AF  3472               	retlw	114	;'r'
  1180     10B0  3464               	retlw	100	;'d'
  1181     10B1  3400               	retlw	0
  1182     10B2                     STR_35:
  1183     10B2  3441               	retlw	65	;'A'
  1184     10B3  3474               	retlw	116	;'t'
  1185     10B4  3474               	retlw	116	;'t'
  1186     10B5  3465               	retlw	101	;'e'
  1187     10B6  346D               	retlw	109	;'m'
  1188     10B7  3470               	retlw	112	;'p'
  1189     10B8  3474               	retlw	116	;'t'
  1190     10B9  3420               	retlw	32	;' '
  1191     10BA  3452               	retlw	82	;'R'
  1192     10BB  3465               	retlw	101	;'e'
  1193     10BC  346D               	retlw	109	;'m'
  1194     10BD  3461               	retlw	97	;'a'
  1195     10BE  3469               	retlw	105	;'i'
  1196     10BF  346E               	retlw	110	;'n'
  1197     10C0  3400               	retlw	0
  1198     10C1                     STR_39:
  1199     10C1  3444               	retlw	68	;'D'
  1200     10C2  346F               	retlw	111	;'o'
  1201     10C3  3477               	retlw	119	;'w'
  1202     10C4  346E               	retlw	110	;'n'
  1203     10C5  346C               	retlw	108	;'l'
  1204     10C6  346F               	retlw	111	;'o'
  1205     10C7  3461               	retlw	97	;'a'
  1206     10C8  3464               	retlw	100	;'d'
  1207     10C9  3420               	retlw	32	;' '
  1208     10CA  344C               	retlw	76	;'L'
  1209     10CB  346F               	retlw	111	;'o'
  1210     10CC  3467               	retlw	103	;'g'
  1211     10CD  3400               	retlw	0
  1212     10CE                     STR_16:
  1213     10CE  344C               	retlw	76	;'L'
  1214     10CF  344F               	retlw	79	;'O'
  1215     10D0  3447               	retlw	71	;'G'
  1216     10D1  3453               	retlw	83	;'S'
  1217     10D2  3420               	retlw	32	;' '
  1218     10D3  3443               	retlw	67	;'C'
  1219     10D4  344C               	retlw	76	;'L'
  1220     10D5  3445               	retlw	69	;'E'
  1221     10D6  3441               	retlw	65	;'A'
  1222     10D7  3452               	retlw	82	;'R'
  1223     10D8  3445               	retlw	69	;'E'
  1224     10D9  3444               	retlw	68	;'D'
  1225     10DA  3400               	retlw	0
  1226     10DB                     STR_17:
  1227     10DB  3453               	retlw	83	;'S'
  1228     10DC  3455               	retlw	85	;'U'
  1229     10DD  3443               	retlw	67	;'C'
  1230     10DE  3443               	retlw	67	;'C'
  1231     10DF  3445               	retlw	69	;'E'
  1232     10E0  3453               	retlw	83	;'S'
  1233     10E1  3453               	retlw	83	;'S'
  1234     10E2  3446               	retlw	70	;'F'
  1235     10E3  3455               	retlw	85	;'U'
  1236     10E4  344C               	retlw	76	;'L'
  1237     10E5  344C               	retlw	76	;'L'
  1238     10E6  3459               	retlw	89	;'Y'
  1239     10E7  3400               	retlw	0
  1240     10E8                     STR_13:
  1241     10E8  3450               	retlw	80	;'P'
  1242     10E9  3457               	retlw	87	;'W'
  1243     10EA  3444               	retlw	68	;'D'
  1244     10EB  3420               	retlw	32	;' '
  1245     10EC  3443               	retlw	67	;'C'
  1246     10ED  3448               	retlw	72	;'H'
  1247     10EE  3441               	retlw	65	;'A'
  1248     10EF  344E               	retlw	78	;'N'
  1249     10F0  3447               	retlw	71	;'G'
  1250     10F1  3445               	retlw	69	;'E'
  1251     10F2  3444               	retlw	68	;'D'
  1252     10F3  3400               	retlw	0
  1253     10F4                     STR_40:
  1254     10F4  3443               	retlw	67	;'C'
  1255     10F5  3468               	retlw	104	;'h'
  1256     10F6  3461               	retlw	97	;'a'
  1257     10F7  346E               	retlw	110	;'n'
  1258     10F8  3467               	retlw	103	;'g'
  1259     10F9  3465               	retlw	101	;'e'
  1260     10FA  3420               	retlw	32	;' '
  1261     10FB  3450               	retlw	80	;'P'
  1262     10FC  3457               	retlw	87	;'W'
  1263     10FD  3444               	retlw	68	;'D'
  1264     10FE  3400               	retlw	0
  1265     10FF                     STR_32:
  1266     10FF  3457               	retlw	87	;'W'
  1267     1100  3441               	retlw	65	;'A'
  1268     1101  3449               	retlw	73	;'I'
  1269     1102  3454               	retlw	84	;'T'
  1270     1103  3420               	retlw	32	;' '
  1271     1104  3446               	retlw	70	;'F'
  1272     1105  344F               	retlw	79	;'O'
  1273     1106  3452               	retlw	82	;'R'
  1274     1107  3420               	retlw	32	;' '
  1275     1108  3400               	retlw	0
  1276     1109                     STR_38:
  1277     1109  3443               	retlw	67	;'C'
  1278     110A  346C               	retlw	108	;'l'
  1279     110B  3465               	retlw	101	;'e'
  1280     110C  3461               	retlw	97	;'a'
  1281     110D  3472               	retlw	114	;'r'
  1282     110E  3420               	retlw	32	;' '
  1283     110F  344C               	retlw	76	;'L'
  1284     1110  346F               	retlw	111	;'o'
  1285     1111  3467               	retlw	103	;'g'
  1286     1112  3400               	retlw	0
  1287     1113                     STR_15:
  1288     1113  3454               	retlw	84	;'T'
  1289     1114  3452               	retlw	82	;'R'
  1290     1115  3459               	retlw	89	;'Y'
  1291     1116  3420               	retlw	32	;' '
  1292     1117  3441               	retlw	65	;'A'
  1293     1118  3447               	retlw	71	;'G'
  1294     1119  3441               	retlw	65	;'A'
  1295     111A  3449               	retlw	73	;'I'
  1296     111B  344E               	retlw	78	;'N'
  1297     111C  3400               	retlw	0
  1298     111D                     STR_25:
  1299     111D  3448               	retlw	72	;'H'
  1300     111E  3448               	retlw	72	;'H'
  1301     111F  343A               	retlw	58	;':'
  1302     1120  344D               	retlw	77	;'M'
  1303     1121  344D               	retlw	77	;'M'
  1304     1122  343A               	retlw	58	;':'
  1305     1123  3453               	retlw	83	;'S'
  1306     1124  3453               	retlw	83	;'S'
  1307     1125  3400               	retlw	0
  1308     1126                     STR_41:
  1309     1126  3453               	retlw	83	;'S'
  1310     1127  3465               	retlw	101	;'e'
  1311     1128  3474               	retlw	116	;'t'
  1312     1129  3420               	retlw	32	;' '
  1313     112A  3454               	retlw	84	;'T'
  1314     112B  3469               	retlw	105	;'i'
  1315     112C  346D               	retlw	109	;'m'
  1316     112D  3465               	retlw	101	;'e'
  1317     112E  3400               	retlw	0
  1318     112F                     STR_37:
  1319     112F  3456               	retlw	86	;'V'
  1320     1130  3469               	retlw	105	;'i'
  1321     1131  3465               	retlw	101	;'e'
  1322     1132  3477               	retlw	119	;'w'
  1323     1133  3420               	retlw	32	;' '
  1324     1134  344C               	retlw	76	;'L'
  1325     1135  346F               	retlw	111	;'o'
  1326     1136  3467               	retlw	103	;'g'
  1327     1137  3400               	retlw	0
  1328     1138                     STR_30:
  1329     1138  344C               	retlw	76	;'L'
  1330     1139  346F               	retlw	111	;'o'
  1331     113A  3467               	retlw	103	;'g'
  1332     113B  3473               	retlw	115	;'s'
  1333     113C  3420               	retlw	32	;' '
  1334     113D  343A               	retlw	58	;':'
  1335     113E  3400               	retlw	0
  1336     113F                     STR_11:
  1337     113F  3443               	retlw	67	;'C'
  1338     1140  344C               	retlw	76	;'L'
  1339     1141  3445               	retlw	69	;'E'
  1340     1142  3441               	retlw	65	;'A'
  1341     1143  3452               	retlw	82	;'R'
  1342     1144  3400               	retlw	0
  1343     1145                     STR_22:
  1344     1145  344C               	retlw	76	;'L'
  1345     1146  344F               	retlw	79	;'O'
  1346     1147  3447               	retlw	71	;'G'
  1347     1148  3453               	retlw	83	;'S'
  1348     1149  3400               	retlw	0
  1349     114A                     STR_7:
  1350     114A  3434               	retlw	52	;'4'
  1351     114B  3434               	retlw	52	;'4'
  1352     114C  3435               	retlw	53	;'5'
  1353     114D  3435               	retlw	53	;'5'
  1354     114E  3400               	retlw	0
  1355     114F                     STR_33:
  1356     114F  3453               	retlw	83	;'S'
  1357     1150  3445               	retlw	69	;'E'
  1358     1151  3443               	retlw	67	;'C'
  1359     1152  3400               	retlw	0
  1360     1153                     STR_21:
  1361     1153  344F               	retlw	79	;'O'
  1362     1154  344E               	retlw	78	;'N'
  1363     1155  3400               	retlw	0
  1364     1156                     STR_8:
  1365     1156  3443               	retlw	67	;'C'
  1366     1157  3420               	retlw	32	;' '
  1367     1158  3400               	retlw	0
  1368     1159                     STR_2:
  1369     1159  3447               	retlw	71	;'G'
  1370     115A  3431               	retlw	49	;'1'
  1371     115B  3400               	retlw	0
  1372     115C                     STR_3:
  1373     115C  3447               	retlw	71	;'G'
  1374     115D  3432               	retlw	50	;'2'
  1375     115E  3400               	retlw	0
  1376     115F                     STR_4:
  1377     115F  3447               	retlw	71	;'G'
  1378     1160  3433               	retlw	51	;'3'
  1379     1161  3400               	retlw	0
  1380     1162                     STR_5:
  1381     1162  3447               	retlw	71	;'G'
  1382     1163  3434               	retlw	52	;'4'
  1383     1164  3400               	retlw	0
  1384     1165                     STR_10:
  1385     1165  3443               	retlw	67	;'C'
  1386     1166  344C               	retlw	76	;'L'
  1387     1167  3400               	retlw	0
  1388     1168                     STR_1:
  1389     1168  3447               	retlw	71	;'G'
  1390     1169  344E               	retlw	78	;'N'
  1391     116A  3400               	retlw	0
  1392     116B                     STR_6:
  1393     116B  3447               	retlw	71	;'G'
  1394     116C  3452               	retlw	82	;'R'
  1395     116D  3400               	retlw	0
  1396     1031                     
  1397                           	psect	cinit
  1398     000F                     start_initialization:	
  1399                           ; #config settings
  1400                           
  1401     000F                     __initialization:
  1402                           
  1403                           ; Initialize objects allocated to BANK3
  1404     000F  1783               	bsf	3,7	;select IRP bank2
  1405     0010  30BC               	movlw	low (__pdataBANK3+22)
  1406     0011  00FD               	movwf	btemp+-1
  1407     0012  3008               	movlw	high __pidataBANK3
  1408     0013  00FE               	movwf	btemp
  1409     0014  3002               	movlw	low __pidataBANK3
  1410     0015  00FF               	movwf	btemp+1
  1411     0016  30A6               	movlw	low __pdataBANK3
  1412     0017  0084               	movwf	4
  1413     0018  160A  118A  225F  120A  118A  	fcall	init_ram0
  1414                           
  1415                           ; Initialize objects allocated to BANK1
  1416     001D  1383               	bcf	3,7	;select IRP bank0
  1417     001E  30ED               	movlw	low (__pdataBANK1+10)
  1418     001F  00FD               	movwf	btemp+-1
  1419     0020  3011               	movlw	high __pidataBANK1
  1420     0021  00FE               	movwf	btemp
  1421     0022  30B7               	movlw	low __pidataBANK1
  1422     0023  00FF               	movwf	btemp+1
  1423     0024  30E3               	movlw	low __pdataBANK1
  1424     0025  0084               	movwf	4
  1425     0026  160A  118A  225F  120A  118A  	fcall	init_ram0
  1426                           
  1427                           ; Initialize objects allocated to BANK0
  1428     002B  305E               	movlw	low (__pdataBANK0+13)
  1429     002C  00FD               	movwf	btemp+-1
  1430     002D  3012               	movlw	high __pidataBANK0
  1431     002E  00FE               	movwf	btemp
  1432     002F  3007               	movlw	low __pidataBANK0
  1433     0030  00FF               	movwf	btemp+1
  1434     0031  3051               	movlw	low __pdataBANK0
  1435     0032  0084               	movwf	4
  1436     0033  160A  118A  225F  120A  118A  	fcall	init_ram0
  1437                           
  1438                           ; Clear objects allocated to BANK3
  1439     0038  1783               	bsf	3,7	;select IRP bank2
  1440     0039  3090               	movlw	low __pbssBANK3
  1441     003A  0084               	movwf	4
  1442     003B  30A6               	movlw	low (__pbssBANK3+22)
  1443     003C  160A  118A  219D  120A  118A  	fcall	clear_ram0
  1444                           
  1445                           ; Clear objects allocated to BANK1
  1446     0041  1383               	bcf	3,7	;select IRP bank0
  1447     0042  30A0               	movlw	low __pbssBANK1
  1448     0043  0084               	movwf	4
  1449     0044  30E3               	movlw	low (__pbssBANK1+67)
  1450     0045  160A  118A  219D  120A  118A  	fcall	clear_ram0
  1451                           
  1452                           ; Clear objects allocated to BANK0
  1453     004A  3039               	movlw	low __pbssBANK0
  1454     004B  0084               	movwf	4
  1455     004C  3051               	movlw	low (__pbssBANK0+24)
  1456     004D  160A  118A  219D  120A  118A  	fcall	clear_ram0
  1457                           
  1458                           ; Clear objects allocated to COMMON
  1459     0052  01FA               	clrf	__pbssCOMMON& (0+127)
  1460     0053  01FB               	clrf	(__pbssCOMMON+1)& (0+127)
  1461     0054                     end_of_initialization:	
  1462                           ;End of C runtime variable initialization code
  1463                           
  1464     0054                     __end_of__initialization:
  1465     0054  0183               	clrf	3
  1466     0055  120A  118A  2858   	ljmp	_main	;jump to C main() function
  1467                           
  1468                           	psect	bssCOMMON
  1469     007A                     __pbssCOMMON:
  1470     007A                     read_digital_keypad@pre_key:
  1471     007A                     	ds	1
  1472     007B                     read_digital_keypad@once:
  1473     007B                     	ds	1
  1474                           
  1475                           	psect	bssBANK0
  1476     0039                     __pbssBANK0:
  1477     0039                     set_time@set_time_arr:
  1478     0039                     	ds	3
  1479     003C                     _clock_reg:
  1480     003C                     	ds	3
  1481     003F                     change_pwd@s:
  1482     003F                     	ds	2
  1483     0041                     change_pwd@flag:
  1484     0041                     	ds	2
  1485     0043                     change_pwd@i:
  1486     0043                     	ds	2
  1487     0045                     login_menu@menu_pos:
  1488     0045                     	ds	1
  1489     0046                     login@i:
  1490     0046                     	ds	1
  1491     0047                     set_time@wait:
  1492     0047                     	ds	1
  1493     0048                     set_time@flag:
  1494     0048                     	ds	1
  1495     0049                     view_log@num:
  1496     0049                     	ds	1
  1497     004A                     _overflow:
  1498     004A                     	ds	1
  1499     004B                     _sec:
  1500     004B                     	ds	1
  1501     004C                     _clear_lg:
  1502     004C                     	ds	1
  1503     004D                     _chng_pwd:
  1504     004D                     	ds	1
  1505     004E                     _vl:
  1506     004E                     	ds	1
  1507     004F                     _pre_key:
  1508     004F                     	ds	1
  1509     0050                     _key:
  1510     0050                     	ds	1
  1511                           
  1512                           	psect	dataBANK0
  1513     0051                     __pdataBANK0:
  1514     0051                     download_log@num:
  1515     0051                     	ds	2
  1516     0053                     _pos2:
  1517     0053                     	ds	2
  1518     0055                     read_digital_keypad@longpressed:
  1519     0055                     	ds	2
  1520     0057                     login@attempts_rem:
  1521     0057                     	ds	1
  1522     0058                     set_time@blink:
  1523     0058                     	ds	1
  1524     0059                     set_time@position:
  1525     0059                     	ds	1
  1526     005A                     view_log@addr:
  1527     005A                     	ds	1
  1528     005B                     _pos:
  1529     005B                     	ds	1
  1530     005C                     _return_time:
  1531     005C                     	ds	1
  1532     005D                     _control_flag:
  1533     005D                     	ds	1
  1534                           
  1535                           	psect	bssBANK1
  1536     00A0                     __pbssBANK1:
  1537     00A0                     _view_log_arr:
  1538     00A0                     	ds	10
  1539     00AA                     _time1:
  1540     00AA                     	ds	7
  1541     00B1                     isr@count:
  1542     00B1                     	ds	2
  1543     00B3                     change_pwd@j:
  1544     00B3                     	ds	2
  1545     00B5                     _num:
  1546     00B5                     	ds	2
  1547     00B7                     _count1:
  1548     00B7                     	ds	2
  1549     00B9                     _count:
  1550     00B9                     	ds	2
  1551     00BB                     _ch:
  1552     00BB                     	ds	1
  1553     00BC                     set_time@hour_limit2:
  1554     00BC                     	ds	1
  1555     00BD                     set_time@hour_limit:
  1556     00BD                     	ds	1
  1557     00BE                     set_time@temp1:
  1558     00BE                     	ds	1
  1559     00BF                     set_time@temp:
  1560     00BF                     	ds	1
  1561     00C0                     set_time@sec_count:
  1562     00C0                     	ds	1
  1563     00C1                     set_time@min_count:
  1564     00C1                     	ds	1
  1565     00C2                     set_time@hour_count2:
  1566     00C2                     	ds	1
  1567     00C3                     set_time@hour_count1:
  1568     00C3                     	ds	1
  1569     00C4                     _viewlog:
  1570     00C4                     	ds	1
  1571     00C5                     _view_pos:
  1572     00C5                     	ds	1
  1573     00C6                     _dwnld_lg:
  1574     00C6                     	ds	1
  1575     00C7                     _re_chng_pwd:
  1576     00C7                     	ds	1
  1577     00C8                     _address:
  1578     00C8                     	ds	1
  1579     00C9                     _log:
  1580     00C9                     	ds	11
  1581     00D4                     _time:
  1582     00D4                     	ds	7
  1583     00DB                     login@spassword:
  1584     00DB                     	ds	4
  1585     00DF                     login@npassword:
  1586     00DF                     	ds	4
  1587                           
  1588                           	psect	dataBANK1
  1589     00E3                     __pdataBANK1:
  1590     00E3                     _baud:
  1591     00E3                     	ds	4
  1592     00E7                     main@F1095:
  1593     00E7                     	ds	3
  1594     00EA                     _pos1:
  1595     00EA                     	ds	1
  1596     00EB                     _memory_location:
  1597     00EB                     	ds	1
  1598     00EC                     _addr:
  1599     00EC                     	ds	1
  1600                           
  1601                           	psect	bssBANK3
  1602     0190                     __pbssBANK3:
  1603     0190                     _view:
  1604     0190                     	ds	22
  1605                           
  1606                           	psect	dataBANK3
  1607     01A6                     __pdataBANK3:
  1608     01A6                     main@F1093:
  1609     01A6                     	ds	12
  1610     01B2                     login_menu@F1154:
  1611     01B2                     	ds	10
  1612                           
  1613                           	psect	inittext
  1614     125B                     init_fetch0:	
  1615                           ;	Called with low address in FSR and high address in W
  1616                           
  1617     125B  087E               	movf	btemp,w
  1618     125C  008A               	movwf	10
  1619     125D  087F               	movf	btemp+1,w
  1620     125E  0082               	movwf	2
  1621     125F                     init_ram0:	
  1622                           ;Called with:
  1623                           ;	high address of idata address in btemp 
  1624                           ;	low address of idata address in btemp+1 
  1625                           ;	low address of data in FSR
  1626                           ;	high address + 1 of data in btemp-1
  1627                           
  1628     125F  160A  118A  225B  160A  118A  	fcall	init_fetch0
  1629     1264  0080               	movwf	0
  1630     1265  0A84               	incf	4,f
  1631     1266  0804               	movf	4,w
  1632     1267  067D               	xorwf	btemp+-1,w
  1633     1268  1903               	btfsc	3,2
  1634     1269  3400               	retlw	0
  1635     126A  0AFF               	incf	btemp+1,f
  1636     126B  1903               	btfsc	3,2
  1637     126C  0AFE               	incf	btemp,f
  1638     126D  2A5F               	goto	init_ram0
  1639                           
  1640                           	psect	clrtext
  1641     119D                     clear_ram0:	
  1642                           ;	Called with FSR containing the base address, and
  1643                           ;	W with the last address+1
  1644                           
  1645     119D  0064               	clrwdt	;clear the watchdog before getting into this loop
  1646     119E                     clrloop0:
  1647     119E  0180               	clrf	0	;clear RAM location pointed to by FSR
  1648     119F  0A84               	incf	4,f	;increment pointer
  1649     11A0  0604               	xorwf	4,w	;XOR with final address
  1650     11A1  1903               	btfsc	3,2	;have we reached the end yet?
  1651     11A2  3400               	retlw	0	;all done for this memory range, return
  1652     11A3  0604               	xorwf	4,w	;XOR again to restore value
  1653     11A4  299E               	goto	clrloop0	;do the next byte
  1654                           
  1655                           	psect	cstackBANK3
  1656     01BC                     __pcstackBANK3:
  1657     01BC                     main@gear:
  1658                           
  1659                           ; 12 bytes @ 0x0
  1660     01BC                     	ds	12
  1661     01C8                     main@j:
  1662                           
  1663                           ; 2 bytes @ 0xC
  1664     01C8                     	ds	2
  1665     01CA                     main@menu_p:
  1666                           
  1667                           ; 1 bytes @ 0xE
  1668     01CA                     	ds	1
  1669     01CB                     main@time_set:
  1670                           
  1671                           ; 1 bytes @ 0xF
  1672     01CB                     	ds	1
  1673     01CC                     main@event:
  1674                           
  1675                           ; 3 bytes @ 0x10
  1676     01CC                     	ds	3
  1677     01CF                     main@gr:
  1678                           
  1679                           ; 1 bytes @ 0x13
  1680     01CF                     	ds	1
  1681     01D0                     main@speed:
  1682                           
  1683                           ; 1 bytes @ 0x14
  1684     01D0                     	ds	1
  1685     01D1                     main@reset_flag:
  1686                           
  1687                           ; 1 bytes @ 0x15
  1688     01D1                     	ds	1
  1689                           
  1690                           	psect	cstackCOMMON
  1691     0070                     __pcstackCOMMON:
  1692     0070                     ?_init_clcd:
  1693     0070                     ?_init_ds1307:	
  1694                           ; 1 bytes @ 0x0
  1695                           
  1696     0070                     ?_init_digital_keypad:	
  1697                           ; 1 bytes @ 0x0
  1698                           
  1699     0070                     ?_init_adc:	
  1700                           ; 1 bytes @ 0x0
  1701                           
  1702     0070                     ?_init_timer2:	
  1703                           ; 1 bytes @ 0x0
  1704                           
  1705     0070                     ?_read_digital_keypad:	
  1706                           ; 1 bytes @ 0x0
  1707                           
  1708     0070                     ?_clear_screen:	
  1709                           ; 1 bytes @ 0x0
  1710                           
  1711     0070                     ?_clear_log:	
  1712                           ; 1 bytes @ 0x0
  1713                           
  1714     0070                     ?_download_log:	
  1715                           ; 1 bytes @ 0x0
  1716                           
  1717     0070                     ?_read_ds1307:	
  1718                           ; 1 bytes @ 0x0
  1719                           
  1720     0070                     ?_i2c_start:	
  1721                           ; 1 bytes @ 0x0
  1722                           
  1723     0070                     ?_i2c_rep_start:	
  1724                           ; 1 bytes @ 0x0
  1725                           
  1726     0070                     ?_i2c_read:	
  1727                           ; 1 bytes @ 0x0
  1728                           
  1729     0070                     ?_i2c_stop:	
  1730                           ; 1 bytes @ 0x0
  1731                           
  1732     0070                     ?_eeprom_at24c04_randon_read:	
  1733                           ; 1 bytes @ 0x0
  1734                           
  1735     0070                     ?_putcharr:	
  1736                           ; 1 bytes @ 0x0
  1737                           
  1738     0070                     ?_init_config:	
  1739                           ; 1 bytes @ 0x0
  1740                           
  1741     0070                     ?_main:	
  1742                           ; 1 bytes @ 0x0
  1743                           
  1744     0070                     ?_init_display_controller:	
  1745                           ; 1 bytes @ 0x0
  1746                           
  1747     0070                     ?_i2c_wait_for_idle:	
  1748                           ; 1 bytes @ 0x0
  1749                           
  1750     0070                     ?_get_time:	
  1751                           ; 1 bytes @ 0x0
  1752                           
  1753     0070                     ?_display_time:	
  1754                           ; 1 bytes @ 0x0
  1755                           
  1756     0070                     ?_log_event:	
  1757                           ; 1 bytes @ 0x0
  1758                           
  1759     0070                     ?_isr:	
  1760                           ; 1 bytes @ 0x0
  1761                           
  1762     0070                     ??_isr:	
  1763                           ; 1 bytes @ 0x0
  1764                           
  1765     0070                     ?_i2c_write:	
  1766                           ; 1 bytes @ 0x0
  1767                           
  1768     0070                     read_digital_keypad@mode:	
  1769                           ; 2 bytes @ 0x0
  1770                           
  1771                           
  1772                           ; 1 bytes @ 0x0
  1773     0070                     	ds	2
  1774     0072                     ??_init_digital_keypad:
  1775     0072                     ??_init_adc:	
  1776                           ; 1 bytes @ 0x2
  1777                           
  1778     0072                     ??_init_timer2:	
  1779                           ; 1 bytes @ 0x2
  1780                           
  1781     0072                     ??_read_digital_keypad:	
  1782                           ; 1 bytes @ 0x2
  1783                           
  1784     0072                     ?_strcpy:	
  1785                           ; 1 bytes @ 0x2
  1786                           
  1787     0072                     ?_clcd_write:	
  1788                           ; 1 bytes @ 0x2
  1789                           
  1790     0072                     ??_clear_log:	
  1791                           ; 1 bytes @ 0x2
  1792                           
  1793     0072                     ??_i2c_start:	
  1794                           ; 1 bytes @ 0x2
  1795                           
  1796     0072                     ??_i2c_write:	
  1797                           ; 1 bytes @ 0x2
  1798                           
  1799     0072                     ??_i2c_rep_start:	
  1800                           ; 1 bytes @ 0x2
  1801                           
  1802     0072                     ??_i2c_read:	
  1803                           ; 1 bytes @ 0x2
  1804                           
  1805     0072                     ??_i2c_stop:	
  1806                           ; 1 bytes @ 0x2
  1807                           
  1808     0072                     ??_putcharr:	
  1809                           ; 1 bytes @ 0x2
  1810                           
  1811     0072                     ?_strncpy:	
  1812                           ; 1 bytes @ 0x2
  1813                           
  1814     0072                     ??_i2c_wait_for_idle:	
  1815                           ; 1 bytes @ 0x2
  1816                           
  1817     0072                     ?___bmul:	
  1818                           ; 1 bytes @ 0x2
  1819                           
  1820     0072                     ?_read_adc:	
  1821                           ; 1 bytes @ 0x2
  1822                           
  1823     0072                     ?_strcmp:	
  1824                           ; 2 bytes @ 0x2
  1825                           
  1826     0072                     ?_strncmp:	
  1827                           ; 2 bytes @ 0x2
  1828                           
  1829     0072                     ?___awdiv:	
  1830                           ; 2 bytes @ 0x2
  1831                           
  1832     0072                     ?___awmod:	
  1833                           ; 2 bytes @ 0x2
  1834                           
  1835     0072                     ?___lldiv:	
  1836                           ; 2 bytes @ 0x2
  1837                           
  1838     0072                     clcd_write@mode:	
  1839                           ; 4 bytes @ 0x2
  1840                           
  1841     0072                     i2c_read@ack:	
  1842                           ; 1 bytes @ 0x2
  1843                           
  1844     0072                     i2c_write@data:	
  1845                           ; 1 bytes @ 0x2
  1846                           
  1847     0072                     read_digital_keypad@key:	
  1848                           ; 1 bytes @ 0x2
  1849                           
  1850     0072                     clear_log@reset_flag:	
  1851                           ; 1 bytes @ 0x2
  1852                           
  1853     0072                     putcharr@data:	
  1854                           ; 1 bytes @ 0x2
  1855                           
  1856     0072                     ___bmul@multiplicand:	
  1857                           ; 1 bytes @ 0x2
  1858                           
  1859     0072                     strncmp@s2:	
  1860                           ; 1 bytes @ 0x2
  1861                           
  1862     0072                     ___awdiv@divisor:	
  1863                           ; 1 bytes @ 0x2
  1864                           
  1865     0072                     ___awmod@divisor:	
  1866                           ; 2 bytes @ 0x2
  1867                           
  1868     0072                     strcmp@s2:	
  1869                           ; 2 bytes @ 0x2
  1870                           
  1871     0072                     strcpy@from:	
  1872                           ; 2 bytes @ 0x2
  1873                           
  1874     0072                     strncpy@from:	
  1875                           ; 2 bytes @ 0x2
  1876                           
  1877     0072                     ___lldiv@divisor:	
  1878                           ; 2 bytes @ 0x2
  1879                           
  1880                           
  1881                           ; 4 bytes @ 0x2
  1882     0072                     	ds	1
  1883     0073                     ??_clcd_write:
  1884     0073                     ?_write_ds1307:	
  1885                           ; 1 bytes @ 0x3
  1886                           
  1887     0073                     ?_putss:	
  1888                           ; 1 bytes @ 0x3
  1889                           
  1890     0073                     ?_eeprom_at24c04_byte_write:	
  1891                           ; 1 bytes @ 0x3
  1892                           
  1893     0073                     ??___bmul:	
  1894                           ; 1 bytes @ 0x3
  1895                           
  1896     0073                     write_ds1307@data:	
  1897                           ; 1 bytes @ 0x3
  1898                           
  1899     0073                     i2c_read@data:	
  1900                           ; 1 bytes @ 0x3
  1901                           
  1902     0073                     eeprom_at24c04_byte_write@data:	
  1903                           ; 1 bytes @ 0x3
  1904                           
  1905     0073                     putss@s:	
  1906                           ; 1 bytes @ 0x3
  1907                           
  1908     0073                     strncmp@len:	
  1909                           ; 2 bytes @ 0x3
  1910                           
  1911                           
  1912                           ; 2 bytes @ 0x3
  1913     0073                     	ds	1
  1914     0074                     ??_read_adc:
  1915     0074                     ??_strcpy:	
  1916                           ; 1 bytes @ 0x4
  1917                           
  1918     0074                     ??_read_ds1307:	
  1919                           ; 1 bytes @ 0x4
  1920                           
  1921     0074                     ??_write_ds1307:	
  1922                           ; 1 bytes @ 0x4
  1923                           
  1924     0074                     ??_strcmp:	
  1925                           ; 1 bytes @ 0x4
  1926                           
  1927     0074                     ??_eeprom_at24c04_randon_read:	
  1928                           ; 1 bytes @ 0x4
  1929                           
  1930     0074                     ??_eeprom_at24c04_byte_write:	
  1931                           ; 1 bytes @ 0x4
  1932                           
  1933     0074                     read_ds1307@addr:	
  1934                           ; 1 bytes @ 0x4
  1935                           
  1936     0074                     write_ds1307@addr:	
  1937                           ; 1 bytes @ 0x4
  1938                           
  1939     0074                     eeprom_at24c04_randon_read@memory_loc:	
  1940                           ; 1 bytes @ 0x4
  1941                           
  1942     0074                     ___bmul@product:	
  1943                           ; 1 bytes @ 0x4
  1944                           
  1945     0074                     read_adc@adc_reg_val:	
  1946                           ; 1 bytes @ 0x4
  1947                           
  1948     0074                     ___awdiv@dividend:	
  1949                           ; 2 bytes @ 0x4
  1950                           
  1951     0074                     ___awmod@dividend:	
  1952                           ; 2 bytes @ 0x4
  1953                           
  1954     0074                     strncpy@size:	
  1955                           ; 2 bytes @ 0x4
  1956                           
  1957                           
  1958                           ; 2 bytes @ 0x4
  1959     0074                     	ds	1
  1960     0075                     ??_strncmp:
  1961     0075                     ??_putss:	
  1962                           ; 1 bytes @ 0x5
  1963                           
  1964     0075                     clcd_write@byte:	
  1965                           ; 1 bytes @ 0x5
  1966                           
  1967     0075                     read_ds1307@data:	
  1968                           ; 1 bytes @ 0x5
  1969                           
  1970     0075                     eeprom_at24c04_randon_read@received_data:	
  1971                           ; 1 bytes @ 0x5
  1972                           
  1973     0075                     ___bmul@multiplier:	
  1974                           ; 1 bytes @ 0x5
  1975                           
  1976     0075                     strcpy@cp:	
  1977                           ; 1 bytes @ 0x5
  1978                           
  1979                           
  1980                           ; 1 bytes @ 0x5
  1981     0075                     	ds	1
  1982     0076                     ??_init_ds1307:
  1983     0076                     ??_clear_screen:	
  1984                           ; 1 bytes @ 0x6
  1985                           
  1986     0076                     ?_clcd_print:	
  1987                           ; 1 bytes @ 0x6
  1988                           
  1989     0076                     ??_strncpy:	
  1990                           ; 1 bytes @ 0x6
  1991                           
  1992     0076                     ??_init_display_controller:	
  1993                           ; 1 bytes @ 0x6
  1994                           
  1995     0076                     ??_get_time:	
  1996                           ; 1 bytes @ 0x6
  1997                           
  1998     0076                     ??___awdiv:	
  1999                           ; 1 bytes @ 0x6
  2000                           
  2001     0076                     ??___awmod:	
  2002                           ; 1 bytes @ 0x6
  2003                           
  2004     0076                     ?___lwdiv:	
  2005                           ; 1 bytes @ 0x6
  2006                           
  2007     0076                     init_ds1307@dummy:	
  2008                           ; 2 bytes @ 0x6
  2009                           
  2010     0076                     eeprom_at24c04_byte_write@memory_loc:	
  2011                           ; 1 bytes @ 0x6
  2012                           
  2013     0076                     strcmp@r:	
  2014                           ; 1 bytes @ 0x6
  2015                           
  2016     0076                     strcpy@to:	
  2017                           ; 1 bytes @ 0x6
  2018                           
  2019     0076                     clcd_print@str:	
  2020                           ; 1 bytes @ 0x6
  2021                           
  2022     0076                     ___lwdiv@divisor:	
  2023                           ; 2 bytes @ 0x6
  2024                           
  2025     0076                     ___lldiv@dividend:	
  2026                           ; 2 bytes @ 0x6
  2027                           
  2028                           
  2029                           ; 4 bytes @ 0x6
  2030     0076                     	ds	1
  2031     0077                     ?_eeprom_at24c04_str_write:
  2032     0077                     ___awmod@counter:	
  2033                           ; 1 bytes @ 0x7
  2034                           
  2035     0077                     strcmp@s1:	
  2036                           ; 1 bytes @ 0x7
  2037                           
  2038     0077                     strncmp@s1:	
  2039                           ; 1 bytes @ 0x7
  2040                           
  2041     0077                     eeprom_at24c04_str_write@data:	
  2042                           ; 1 bytes @ 0x7
  2043                           
  2044                           
  2045                           ; 2 bytes @ 0x7
  2046     0077                     	ds	1
  2047     0078                     ??_init_clcd:
  2048     0078                     clcd_print@addr:	
  2049                           ; 1 bytes @ 0x8
  2050                           
  2051     0078                     ___awmod@sign:	
  2052                           ; 1 bytes @ 0x8
  2053                           
  2054     0078                     ___lwdiv@dividend:	
  2055                           ; 1 bytes @ 0x8
  2056                           
  2057                           
  2058                           ; 2 bytes @ 0x8
  2059     0078                     	ds	1
  2060     0079                     ??_eeprom_at24c04_str_write:
  2061     0079                     ??_clcd_print:	
  2062                           ; 1 bytes @ 0x9
  2063                           
  2064     0079                     ??_download_log:	
  2065                           ; 1 bytes @ 0x9
  2066                           
  2067     0079                     ?_clcd_putch:	
  2068                           ; 1 bytes @ 0x9
  2069                           
  2070     0079                     clcd_putch@addr:	
  2071                           ; 1 bytes @ 0x9
  2072                           
  2073                           
  2074                           ; 1 bytes @ 0x9
  2075     0079                     	ds	1
  2076     007A                     ??_view_log:
  2077     007A                     ??_init_config:	
  2078                           ; 1 bytes @ 0xA
  2079                           
  2080     007A                     ??_clcd_putch:	
  2081                           ; 1 bytes @ 0xA
  2082                           
  2083     007A                     ??_display_time:	
  2084                           ; 1 bytes @ 0xA
  2085                           
  2086                           
  2087                           	psect	cstackBANK0
  2088     0020                     __pcstackBANK0:	
  2089                           ; 1 bytes @ 0xA
  2090                           
  2091     0020                     ??___lldiv:
  2092     0020                     ??___lwdiv:	
  2093                           ; 1 bytes @ 0x0
  2094                           
  2095     0020                     eeprom_at24c04_str_write@memory_loc:	
  2096                           ; 1 bytes @ 0x0
  2097                           
  2098     0020                     ___awdiv@counter:	
  2099                           ; 1 bytes @ 0x0
  2100                           
  2101     0020                     strncpy@to:	
  2102                           ; 1 bytes @ 0x0
  2103                           
  2104     0020                     download_log@download_log_arr:	
  2105                           ; 1 bytes @ 0x0
  2106                           
  2107                           
  2108                           ; 11 bytes @ 0x0
  2109     0020                     	ds	1
  2110     0021                     ??_log_event:
  2111     0021                     ___awdiv@sign:	
  2112                           ; 1 bytes @ 0x1
  2113                           
  2114     0021                     ___lwdiv@counter:	
  2115                           ; 1 bytes @ 0x1
  2116                           
  2117     0021                     strncpy@cp:	
  2118                           ; 1 bytes @ 0x1
  2119                           
  2120     0021                     ___lldiv@quotient:	
  2121                           ; 1 bytes @ 0x1
  2122                           
  2123                           
  2124                           ; 4 bytes @ 0x1
  2125     0021                     	ds	1
  2126     0022                     log_event@addr:
  2127     0022                     ___awdiv@quotient:	
  2128                           ; 1 bytes @ 0x2
  2129                           
  2130     0022                     ___lwdiv@quotient:	
  2131                           ; 2 bytes @ 0x2
  2132                           
  2133                           
  2134                           ; 2 bytes @ 0x2
  2135     0022                     	ds	2
  2136     0024                     ?_log_car_event:
  2137     0024                     clcd_putch@data:	
  2138                           ; 1 bytes @ 0x4
  2139                           
  2140     0024                     log_car_event@event:	
  2141                           ; 1 bytes @ 0x4
  2142                           
  2143                           
  2144                           ; 2 bytes @ 0x4
  2145     0024                     	ds	1
  2146     0025                     ?_display_dashboard:
  2147     0025                     ?_login:	
  2148                           ; 1 bytes @ 0x5
  2149                           
  2150     0025                     ?_login_menu:	
  2151                           ; 1 bytes @ 0x5
  2152                           
  2153     0025                     ?_view_log:	
  2154                           ; 1 bytes @ 0x5
  2155                           
  2156     0025                     ?_change_pwd:	
  2157                           ; 1 bytes @ 0x5
  2158                           
  2159     0025                     ?_set_time:	
  2160                           ; 1 bytes @ 0x5
  2161                           
  2162     0025                     display_dashboard@speed:	
  2163                           ; 1 bytes @ 0x5
  2164                           
  2165     0025                     view_log@reset_flag:	
  2166                           ; 1 bytes @ 0x5
  2167                           
  2168     0025                     change_pwd@reset_flag:	
  2169                           ; 1 bytes @ 0x5
  2170                           
  2171     0025                     set_time@control_flag:	
  2172                           ; 1 bytes @ 0x5
  2173                           
  2174     0025                     login@reset_flag:	
  2175                           ; 1 bytes @ 0x5
  2176                           
  2177     0025                     login_menu@reset_flag:	
  2178                           ; 1 bytes @ 0x5
  2179                           
  2180     0025                     ___lldiv@counter:	
  2181                           ; 1 bytes @ 0x5
  2182                           
  2183                           
  2184                           ; 1 bytes @ 0x5
  2185     0025                     	ds	1
  2186     0026                     ?_init_i2c:
  2187     0026                     ?_init_uarts:	
  2188                           ; 1 bytes @ 0x6
  2189                           
  2190     0026                     ??_display_dashboard:	
  2191                           ; 1 bytes @ 0x6
  2192                           
  2193     0026                     ??_login:	
  2194                           ; 1 bytes @ 0x6
  2195                           
  2196     0026                     ??_login_menu:	
  2197                           ; 1 bytes @ 0x6
  2198                           
  2199     0026                     ??_set_time:	
  2200                           ; 1 bytes @ 0x6
  2201                           
  2202     0026                     view_log@control_flag:	
  2203                           ; 1 bytes @ 0x6
  2204                           
  2205     0026                     change_pwd@control_flag:	
  2206                           ; 1 bytes @ 0x6
  2207                           
  2208     0026                     log_car_event@speed:	
  2209                           ; 1 bytes @ 0x6
  2210                           
  2211     0026                     init_i2c@baud:	
  2212                           ; 1 bytes @ 0x6
  2213                           
  2214     0026                     init_uarts@baud:	
  2215                           ; 4 bytes @ 0x6
  2216                           
  2217                           
  2218                           ; 4 bytes @ 0x6
  2219     0026                     	ds	1
  2220     0027                     ??_log_car_event:
  2221     0027                     ??_change_pwd:	
  2222                           ; 1 bytes @ 0x7
  2223                           
  2224     0027                     view_log@i_387:	
  2225                           ; 1 bytes @ 0x7
  2226                           
  2227                           
  2228                           ; 4 bytes @ 0x7
  2229     0027                     	ds	1
  2230     0028                     display_dashboard@event:
  2231     0028                     change_pwd@pwd1:	
  2232                           ; 1 bytes @ 0x8
  2233                           
  2234                           
  2235                           ; 4 bytes @ 0x8
  2236     0028                     	ds	1
  2237     0029                     login@key:
  2238                           
  2239                           ; 1 bytes @ 0x9
  2240     0029                     	ds	1
  2241     002A                     ??_init_i2c:
  2242     002A                     ??_init_uarts:	
  2243                           ; 1 bytes @ 0xA
  2244                           
  2245     002A                     login@j:	
  2246                           ; 1 bytes @ 0xA
  2247                           
  2248     002A                     login_menu@menu:	
  2249                           ; 1 bytes @ 0xA
  2250                           
  2251                           
  2252                           ; 10 bytes @ 0xA
  2253     002A                     	ds	1
  2254     002B                     download_log@addr:
  2255     002B                     view_log@new:	
  2256                           ; 1 bytes @ 0xB
  2257                           
  2258                           
  2259                           ; 2 bytes @ 0xB
  2260     002B                     	ds	1
  2261     002C                     download_log@new:
  2262     002C                     change_pwd@pwd:	
  2263                           ; 2 bytes @ 0xC
  2264                           
  2265                           
  2266                           ; 4 bytes @ 0xC
  2267     002C                     	ds	1
  2268     002D                     view_log@key:
  2269     002D                     set_time@dummy:	
  2270                           ; 1 bytes @ 0xD
  2271                           
  2272                           
  2273                           ; 1 bytes @ 0xD
  2274     002D                     	ds	1
  2275     002E                     set_time@key:
  2276     002E                     view_log@i:	
  2277                           ; 1 bytes @ 0xE
  2278                           
  2279     002E                     download_log@i:	
  2280                           ; 2 bytes @ 0xE
  2281                           
  2282                           
  2283                           ; 2 bytes @ 0xE
  2284     002E                     	ds	2
  2285     0030                     change_pwd@key:
  2286                           
  2287                           ; 1 bytes @ 0x10
  2288     0030                     	ds	4
  2289     0034                     login_menu@key:
  2290                           
  2291                           ; 1 bytes @ 0x14
  2292     0034                     	ds	1
  2293     0035                     ??_main:
  2294                           
  2295                           ; 1 bytes @ 0x15
  2296     0035                     	ds	4
  2297                           
  2298                           	psect	maintext
  2299     0058                     __pmaintext:	
  2300 ;;
  2301 ;;Main: autosize = 0, tempsize = 4, incstack = 0, save=0
  2302 ;;
  2303 ;; *************** function _main *****************
  2304 ;; Defined at:
  2305 ;;		line 39 in file "main.c"
  2306 ;; Parameters:    Size  Location     Type
  2307 ;;		None
  2308 ;; Auto vars:     Size  Location     Type
  2309 ;;  j               2   12[BANK3 ] int 
  2310 ;;  gear           12    0[BANK3 ] PTR unsigned char [6]
  2311 ;;		 -> STR_6(3), STR_5(3), STR_4(3), STR_3(3), 
  2312 ;;		 -> STR_2(3), STR_1(3), 
  2313 ;;  event           3   16[BANK3 ] unsigned char [3]
  2314 ;;  reset_flag      1   21[BANK3 ] unsigned char 
  2315 ;;  speed           1   20[BANK3 ] unsigned char 
  2316 ;;  gr              1   19[BANK3 ] unsigned char 
  2317 ;;  time_set        1   15[BANK3 ] unsigned char 
  2318 ;;  menu_p          1   14[BANK3 ] unsigned char 
  2319 ;;  dwnld_log       1    0        unsigned char 
  2320 ;; Return value:  Size  Location     Type
  2321 ;;                  1    wreg      void 
  2322 ;; Registers used:
  2323 ;;		wreg, fsr0l, fsr0h, status,2, status,0, btemp+1, pclath, cstack
  2324 ;; Tracked objects:
  2325 ;;		On entry : B00/0
  2326 ;;		On exit  : 0/0
  2327 ;;		Unchanged: 0/0
  2328 ;; Data sizes:     COMMON   BANK0   BANK1   BANK3   BANK2
  2329 ;;      Params:         0       0       0       0       0
  2330 ;;      Locals:         0       0       0      22       0
  2331 ;;      Temps:          0       4       0       0       0
  2332 ;;      Totals:         0       4       0      22       0
  2333 ;;Total ram usage:       26 bytes
  2334 ;; Hardware stack levels required when called: 8
  2335 ;; This function calls:
  2336 ;;		___lwdiv
  2337 ;;		_change_pwd
  2338 ;;		_clcd_print
  2339 ;;		_clcd_write
  2340 ;;		_clear_log
  2341 ;;		_clear_screen
  2342 ;;		_display_dashboard
  2343 ;;		_download_log
  2344 ;;		_eeprom_at24c04_str_write
  2345 ;;		_init_config
  2346 ;;		_log_car_event
  2347 ;;		_login
  2348 ;;		_login_menu
  2349 ;;		_read_adc
  2350 ;;		_read_digital_keypad
  2351 ;;		_set_time
  2352 ;;		_strcpy
  2353 ;;		_view_log
  2354 ;; This function is called by:
  2355 ;;		Startup code after reset
  2356 ;; This function uses a non-reentrant model
  2357 ;;
  2358                           
  2359     0058                     _main:	
  2360                           ;psect for function _main
  2361                           
  2362     0058                     l5383:	
  2363                           ;incstack = 0
  2364                           ; Regs used in _main: [wreg-fsr0h+status,2+status,0+btemp+1+pclath+cstack]
  2365                           
  2366                           
  2367                           ;main.c: 40:     while (1) {
  2368     0058  160A  118A  24B2  120A  118A  	fcall	_init_config
  2369     005D                     l5385:
  2370                           
  2371                           ;main.c: 41: ;main.c: 42:         speed = read_adc() / 10;;main.c: 43:         if(speed 
      +                          > 99);main.c: 45:             speed = 99;
  2372     005D  30BC               	movlw	main@gear& (0+255)
  2373     005E  0084               	movwf	4
  2374     005F  30A6               	movlw	low main@F1093
  2375     0060  1283               	bcf	3,5	;RP0=0, select bank0
  2376     0061  1303               	bcf	3,6	;RP1=0, select bank0
  2377     0062  00B5               	movwf	??_main
  2378     0063  0804               	movf	4,w
  2379     0064  00B6               	movwf	??_main+1
  2380     0065  300C               	movlw	12
  2381     0066  00B7               	movwf	??_main+2
  2382     0067                     u5890:
  2383     0067  0835               	movf	??_main,w
  2384     0068  0084               	movwf	4
  2385     0069  1783               	bsf	3,7	;select IRP bank3
  2386     006A  0800               	movf	0,w
  2387     006B  00B8               	movwf	??_main+3
  2388     006C  0AB5               	incf	??_main,f
  2389     006D  0836               	movf	??_main+1,w
  2390     006E  0084               	movwf	4
  2391     006F  0838               	movf	??_main+3,w
  2392     0070  0080               	movwf	0
  2393     0071  0AB6               	incf	??_main+1,f
  2394     0072  0BB7               	decfsz	??_main+2,f
  2395     0073  2867               	goto	u5890
  2396     0074                     l5387:
  2397                           
  2398                           ;main.c: 46:         }
  2399     0074  1683               	bsf	3,5	;RP0=1, select bank1
  2400     0075  1303               	bcf	3,6	;RP1=0, select bank1
  2401     0076  0867               	movf	main@F1095^(0+128),w
  2402     0077  1683               	bsf	3,5	;RP0=1, select bank3
  2403     0078  1703               	bsf	3,6	;RP1=1, select bank3
  2404     0079  00CC               	movwf	main@event^(0+384)
  2405     007A  1683               	bsf	3,5	;RP0=1, select bank1
  2406     007B  1303               	bcf	3,6	;RP1=0, select bank1
  2407     007C  0868               	movf	(main@F1095+1)^(0+128),w
  2408     007D  1683               	bsf	3,5	;RP0=1, select bank3
  2409     007E  1703               	bsf	3,6	;RP1=1, select bank3
  2410     007F  00CD               	movwf	(main@event+1)^(0+384)
  2411     0080  1683               	bsf	3,5	;RP0=1, select bank1
  2412     0081  1303               	bcf	3,6	;RP1=0, select bank1
  2413     0082  0869               	movf	(main@F1095+2)^(0+128),w
  2414     0083  1683               	bsf	3,5	;RP0=1, select bank3
  2415     0084  1703               	bsf	3,6	;RP1=1, select bank3
  2416     0085  00CE               	movwf	(main@event+2)^(0+384)
  2417     0086                     l5389:
  2418     0086                     l5391:
  2419     0086  01CF               	clrf	main@gr^(0+384)
  2420     0087                     l5393:
  2421                           
  2422                           ;main.c: 51: 
  2423     0087  304A               	movlw	low (STR_7| (0+32768))
  2424     0088  00F7               	movwf	eeprom_at24c04_str_write@data
  2425     0089  3091               	movlw	high (STR_7| (0+32768))
  2426     008A  00F8               	movwf	eeprom_at24c04_str_write@data+1
  2427     008B  3000               	movlw	0
  2428     008C  160A  118A  23EE  120A  118A  	fcall	_eeprom_at24c04_str_write
  2429     0091                     l5395:
  2430                           
  2431                           ;main.c: 52:         if(key != 0x3F)
  2432     0091  30CC               	movlw	(low (main@event| (0+256)))& (0+255)
  2433     0092  1283               	bcf	3,5	;RP0=0, select bank0
  2434     0093  1303               	bcf	3,6	;RP1=0, select bank0
  2435     0094  00A4               	movwf	log_car_event@event
  2436     0095  3001               	movlw	1
  2437     0096  00A5               	movwf	log_car_event@event+1
  2438     0097  01A6               	clrf	log_car_event@speed
  2439     0098  160A  118A  26E7  120A  118A  	fcall	_log_car_event
  2440     009D                     l5397:
  2441                           
  2442                           ;main.c: 55:         }
  2443     009D  300A               	movlw	10
  2444     009E  00F6               	movwf	___lwdiv@divisor
  2445     009F  3000               	movlw	0
  2446     00A0  00F7               	movwf	___lwdiv@divisor+1
  2447     00A1  160A  118A  2236  120A  118A  	fcall	_read_adc
  2448     00A6  0873               	movf	?_read_adc+1,w
  2449     00A7  00F9               	movwf	___lwdiv@dividend+1
  2450     00A8  0872               	movf	?_read_adc,w
  2451     00A9  00F8               	movwf	___lwdiv@dividend
  2452     00AA  160A  118A  2569  120A  118A  	fcall	___lwdiv
  2453     00AF  0876               	movf	?___lwdiv,w
  2454     00B0  1683               	bsf	3,5	;RP0=1, select bank3
  2455     00B1  1703               	bsf	3,6	;RP1=1, select bank3
  2456     00B2  00D0               	movwf	main@speed^(0+384)
  2457     00B3                     l5399:
  2458                           
  2459                           ;main.c: 56:         if(key == 0x3E)
  2460     00B3  3064               	movlw	100
  2461     00B4  0250               	subwf	main@speed^(0+384),w
  2462     00B5  1C03               	skipc
  2463     00B6  28B8               	goto	u5901
  2464     00B7  28B9               	goto	u5900
  2465     00B8                     u5901:
  2466     00B8  28BB               	goto	l5403
  2467     00B9                     u5900:
  2468     00B9                     l5401:
  2469                           
  2470                           ;main.c: 57:         {;main.c: 58:             strcpy(event,"C ");
  2471     00B9  3063               	movlw	99
  2472     00BA  00D0               	movwf	main@speed^(0+384)
  2473     00BB                     l5403:
  2474                           
  2475                           ;main.c: 61:         }
  2476     00BB  3001               	movlw	1
  2477     00BC  120A  158A  20ED  120A  118A  	fcall	_read_digital_keypad
  2478     00C1  1283               	bcf	3,5	;RP0=0, select bank0
  2479     00C2  1303               	bcf	3,6	;RP1=0, select bank0
  2480     00C3  00D0               	movwf	_key
  2481     00C4                     l5405:
  2482                           
  2483                           ;main.c: 63:         {
  2484     00C4  30B8               	movlw	184
  2485     00C5  1683               	bsf	3,5	;RP0=1, select bank3
  2486     00C6  1703               	bsf	3,6	;RP1=1, select bank3
  2487     00C7  00C8               	movwf	main@j^(0+384)
  2488     00C8  300B               	movlw	11
  2489     00C9  00C9               	movwf	(main@j^(0+384)+1)
  2490     00CA                     l5407:
  2491     00CA  30FF               	movlw	255
  2492     00CB  07C8               	addwf	main@j^(0+384),f
  2493     00CC  1803               	skipnc
  2494     00CD  0AC9               	incf	(main@j+1)^(0+384),f
  2495     00CE  30FF               	movlw	255
  2496     00CF  07C9               	addwf	(main@j+1)^(0+384),f
  2497     00D0  0A48               	incf	main@j^(0+384),w
  2498     00D1  1D03               	skipz
  2499     00D2  28D7               	goto	u5911
  2500     00D3  0A49               	incf	(main@j+1)^(0+384),w
  2501     00D4  1D03               	btfss	3,2
  2502     00D5  28D7               	goto	u5911
  2503     00D6  28D8               	goto	u5910
  2504     00D7                     u5911:
  2505     00D7  28CA               	goto	l5407
  2506     00D8                     u5910:
  2507     00D8                     l5409:
  2508                           
  2509                           ;main.c: 65:             gr++;
  2510     00D8  303F               	movlw	63
  2511     00D9  1283               	bcf	3,5	;RP0=0, select bank0
  2512     00DA  1303               	bcf	3,6	;RP1=0, select bank0
  2513     00DB  0650               	xorwf	_key,w
  2514     00DC  1903               	btfsc	3,2
  2515     00DD  28DF               	goto	u5921
  2516     00DE  28E0               	goto	u5920
  2517     00DF                     u5921:
  2518     00DF  28E2               	goto	l5413
  2519     00E0                     u5920:
  2520     00E0                     l5411:
  2521                           
  2522                           ;main.c: 66:              log_car_event(event,speed);;main.c: 67: 
  2523     00E0  0850               	movf	_key,w
  2524     00E1  00CF               	movwf	_pre_key
  2525     00E2                     l5413:
  2526                           
  2527                           ;main.c: 69:         else if(key == 0x3B && gr > 0 && control_flag == 0x01)
  2528     00E2  303E               	movlw	62
  2529     00E3  0650               	xorwf	_key,w
  2530     00E4  1D03               	btfss	3,2
  2531     00E5  28E7               	goto	u5931
  2532     00E6  28E8               	goto	u5930
  2533     00E7                     u5931:
  2534     00E7  2904               	goto	l5417
  2535     00E8                     u5930:
  2536     00E8                     l5415:
  2537                           
  2538                           ;main.c: 70:         {;main.c: 71:             gr--;
  2539     00E8  3056               	movlw	low (STR_8| (0+32768))
  2540     00E9  00F2               	movwf	strcpy@from
  2541     00EA  3091               	movlw	high (STR_8| (0+32768))
  2542     00EB  00F3               	movwf	strcpy@from+1
  2543     00EC  30CC               	movlw	(low (main@event| (0+256)))& (0+255)
  2544     00ED  160A  118A  22F7  120A  118A  	fcall	_strcpy
  2545                           
  2546                           ;main.c: 72:             strcpy(event,gear[gr]);
  2547     00F2  30CC               	movlw	(low (main@event| (0+256)))& (0+255)
  2548     00F3  1283               	bcf	3,5	;RP0=0, select bank0
  2549     00F4  1303               	bcf	3,6	;RP1=0, select bank0
  2550     00F5  00A4               	movwf	log_car_event@event
  2551     00F6  3001               	movlw	1
  2552     00F7  00A5               	movwf	log_car_event@event+1
  2553     00F8  1683               	bsf	3,5	;RP0=1, select bank3
  2554     00F9  1703               	bsf	3,6	;RP1=1, select bank3
  2555     00FA  0850               	movf	main@speed^(0+384),w
  2556     00FB  1283               	bcf	3,5	;RP0=0, select bank0
  2557     00FC  1303               	bcf	3,6	;RP1=0, select bank0
  2558     00FD  00A6               	movwf	log_car_event@speed
  2559     00FE  160A  118A  26E7  120A  118A  	fcall	_log_car_event
  2560                           
  2561                           ;main.c: 74:         }
  2562     0103  2C6E               	goto	l5663
  2563     0104                     l5417:
  2564     0104  303D               	movlw	61
  2565     0105  0650               	xorwf	_key,w
  2566     0106  1D03               	btfss	3,2
  2567     0107  2909               	goto	u5941
  2568     0108  290A               	goto	u5940
  2569     0109                     u5941:
  2570     0109  2949               	goto	l5429
  2571     010A                     u5940:
  2572     010A                     l5419:
  2573     010A  3006               	movlw	6
  2574     010B  1683               	bsf	3,5	;RP0=1, select bank3
  2575     010C  1703               	bsf	3,6	;RP1=1, select bank3
  2576     010D  024F               	subwf	main@gr^(0+384),w
  2577     010E  1803               	skipnc
  2578     010F  2911               	goto	u5951
  2579     0110  2912               	goto	u5950
  2580     0111                     u5951:
  2581     0111  2949               	goto	l5429
  2582     0112                     u5950:
  2583     0112                     l5421:
  2584     0112  1283               	bcf	3,5	;RP0=0, select bank0
  2585     0113  1303               	bcf	3,6	;RP1=0, select bank0
  2586     0114  035D               	decf	_control_flag,w
  2587     0115  1D03               	btfss	3,2
  2588     0116  2918               	goto	u5961
  2589     0117  2919               	goto	u5960
  2590     0118                     u5961:
  2591     0118  2949               	goto	l5429
  2592     0119                     u5960:
  2593     0119                     l5423:
  2594                           
  2595                           ;main.c: 76:         {;main.c: 77:             clear_screen();
  2596     0119  1683               	bsf	3,5	;RP0=1, select bank3
  2597     011A  1703               	bsf	3,6	;RP1=1, select bank3
  2598     011B  084F               	movf	main@gr^(0+384),w
  2599     011C  1283               	bcf	3,5	;RP0=0, select bank0
  2600     011D  1303               	bcf	3,6	;RP1=0, select bank0
  2601     011E  00B5               	movwf	??_main
  2602     011F  0735               	addwf	??_main,w
  2603     0120  3EBC               	addlw	(low (main@gear| (0+256)))& (0+255)
  2604     0121  0084               	movwf	4
  2605     0122  1783               	bsf	3,7	;select IRP bank3
  2606     0123  0800               	movf	0,w
  2607     0124  00F2               	movwf	strcpy@from
  2608     0125  0A84               	incf	4,f
  2609     0126  0800               	movf	0,w
  2610     0127  0384               	decf	4,f
  2611     0128  00F3               	movwf	strcpy@from+1
  2612     0129  30CC               	movlw	(low (main@event| (0+256)))& (0+255)
  2613     012A  160A  118A  22F7  120A  118A  	fcall	_strcpy
  2614     012F                     l5425:
  2615                           
  2616                           ;main.c: 78:             clcd_print(" ENTER PASSWORD",(0x80 + 0));
  2617     012F  3001               	movlw	1
  2618     0130  1283               	bcf	3,5	;RP0=0, select bank0
  2619     0131  1303               	bcf	3,6	;RP1=0, select bank0
  2620     0132  00B5               	movwf	??_main
  2621     0133  0835               	movf	??_main,w
  2622     0134  1683               	bsf	3,5	;RP0=1, select bank3
  2623     0135  1703               	bsf	3,6	;RP1=1, select bank3
  2624     0136  07CF               	addwf	main@gr^(0+384),f
  2625     0137                     l5427:
  2626                           
  2627                           ;main.c: 79:             clcd_write(0xC6,0);
  2628     0137  30CC               	movlw	(low (main@event| (0+256)))& (0+255)
  2629     0138  1283               	bcf	3,5	;RP0=0, select bank0
  2630     0139  1303               	bcf	3,6	;RP1=0, select bank0
  2631     013A  00A4               	movwf	log_car_event@event
  2632     013B  3001               	movlw	1
  2633     013C  00A5               	movwf	log_car_event@event+1
  2634     013D  1683               	bsf	3,5	;RP0=1, select bank3
  2635     013E  1703               	bsf	3,6	;RP1=1, select bank3
  2636     013F  0850               	movf	main@speed^(0+384),w
  2637     0140  1283               	bcf	3,5	;RP0=0, select bank0
  2638     0141  1303               	bcf	3,6	;RP1=0, select bank0
  2639     0142  00A6               	movwf	log_car_event@speed
  2640     0143  160A  118A  26E7  120A  118A  	fcall	_log_car_event
  2641                           
  2642                           ;main.c: 81:             _delay((unsigned long)((100)*(20000000/4000000.0)));
  2643     0148  2C6E               	goto	l5663
  2644     0149                     l5429:
  2645     0149  303B               	movlw	59
  2646     014A  1283               	bcf	3,5	;RP0=0, select bank0
  2647     014B  1303               	bcf	3,6	;RP1=0, select bank0
  2648     014C  0650               	xorwf	_key,w
  2649     014D  1D03               	btfss	3,2
  2650     014E  2950               	goto	u5971
  2651     014F  2951               	goto	u5970
  2652     0150                     u5971:
  2653     0150  2978               	goto	l5441
  2654     0151                     u5970:
  2655     0151                     l5431:
  2656     0151  1683               	bsf	3,5	;RP0=1, select bank3
  2657     0152  1703               	bsf	3,6	;RP1=1, select bank3
  2658     0153  084F               	movf	main@gr^(0+384),w
  2659     0154  1903               	btfsc	3,2
  2660     0155  2957               	goto	u5981
  2661     0156  2958               	goto	u5980
  2662     0157                     u5981:
  2663     0157  2978               	goto	l5441
  2664     0158                     u5980:
  2665     0158                     l5433:
  2666     0158  1283               	bcf	3,5	;RP0=0, select bank0
  2667     0159  1303               	bcf	3,6	;RP1=0, select bank0
  2668     015A  035D               	decf	_control_flag,w
  2669     015B  1D03               	btfss	3,2
  2670     015C  295E               	goto	u5991
  2671     015D  295F               	goto	u5990
  2672     015E                     u5991:
  2673     015E  2978               	goto	l5441
  2674     015F                     u5990:
  2675     015F                     l5435:
  2676                           
  2677                           ;main.c: 83:             reset_flag = 0x10;;main.c: 84:             TMR2ON = 1;
  2678     015F  3001               	movlw	1
  2679     0160  1683               	bsf	3,5	;RP0=1, select bank3
  2680     0161  1703               	bsf	3,6	;RP1=1, select bank3
  2681     0162  02CF               	subwf	main@gr^(0+384),f
  2682     0163                     l5437:
  2683                           
  2684                           ;main.c: 85:         }
  2685     0163  084F               	movf	main@gr^(0+384),w
  2686     0164  1283               	bcf	3,5	;RP0=0, select bank0
  2687     0165  1303               	bcf	3,6	;RP1=0, select bank0
  2688     0166  00B5               	movwf	??_main
  2689     0167  0735               	addwf	??_main,w
  2690     0168  3EBC               	addlw	(low (main@gear| (0+256)))& (0+255)
  2691     0169  0084               	movwf	4
  2692     016A  1783               	bsf	3,7	;select IRP bank3
  2693     016B  0800               	movf	0,w
  2694     016C  00F2               	movwf	strcpy@from
  2695     016D  0A84               	incf	4,f
  2696     016E  0800               	movf	0,w
  2697     016F  0384               	decf	4,f
  2698     0170  00F3               	movwf	strcpy@from+1
  2699     0171  30CC               	movlw	(low (main@event| (0+256)))& (0+255)
  2700     0172  160A  118A  22F7  120A  118A  	fcall	_strcpy
  2701     0177  2937               	goto	l5427
  2702     0178                     l5441:
  2703     0178  3037               	movlw	55
  2704     0179  1283               	bcf	3,5	;RP0=0, select bank0
  2705     017A  1303               	bcf	3,6	;RP1=0, select bank0
  2706     017B  0650               	xorwf	_key,w
  2707     017C  1903               	btfsc	3,2
  2708     017D  297F               	goto	u6001
  2709     017E  2980               	goto	u6000
  2710     017F                     u6001:
  2711     017F  2986               	goto	l5445
  2712     0180                     u6000:
  2713     0180                     l5443:
  2714     0180  302F               	movlw	47
  2715     0181  0650               	xorwf	_key,w
  2716     0182  1D03               	btfss	3,2
  2717     0183  2985               	goto	u6011
  2718     0184  2986               	goto	u6010
  2719     0185                     u6011:
  2720     0185  29BC               	goto	l5463
  2721     0186                     u6010:
  2722     0186                     l5445:
  2723     0186  035D               	decf	_control_flag,w
  2724     0187  1D03               	btfss	3,2
  2725     0188  298A               	goto	u6021
  2726     0189  298B               	goto	u6020
  2727     018A                     u6021:
  2728     018A  29BC               	goto	l5463
  2729     018B                     u6020:
  2730     018B                     l5447:
  2731                           
  2732                           ;main.c: 89: ;main.c: 90:                 switch(menu_p)
  2733     018B  160A  118A  2214  120A  118A  	fcall	_clear_screen
  2734     0190                     l5449:
  2735                           
  2736                           ;main.c: 91:                 {
  2737     0190  3075               	movlw	low (STR_9| (0+32768))
  2738     0191  00F6               	movwf	clcd_print@str
  2739     0192  3090               	movlw	high (STR_9| (0+32768))
  2740     0193  00F7               	movwf	clcd_print@str+1
  2741     0194  3080               	movlw	128
  2742     0195  00F8               	movwf	clcd_print@addr
  2743     0196  160A  118A  23BF  120A  118A  	fcall	_clcd_print
  2744     019B                     l5451:
  2745                           
  2746                           ;main.c: 92:                     case 0:
  2747     019B  01F2               	clrf	clcd_write@mode
  2748     019C  30C6               	movlw	198
  2749     019D  160A  118A  22B6  120A  118A  	fcall	_clcd_write
  2750     01A2                     l5453:
  2751                           
  2752                           ;main.c: 93: 
  2753     01A2  01F2               	clrf	clcd_write@mode
  2754     01A3  300F               	movlw	15
  2755     01A4  160A  118A  22B6  120A  118A  	fcall	_clcd_write
  2756     01A9                     l5455:
  2757                           
  2758                           ;main.c: 94:                         control_flag = 0x04;
  2759     01A9  30A5               	movlw	165
  2760     01AA  1283               	bcf	3,5	;RP0=0, select bank0
  2761     01AB  1303               	bcf	3,6	;RP1=0, select bank0
  2762     01AC  00B5               	movwf	??_main
  2763     01AD                     u6227:
  2764     01AD  0BB5               	decfsz	??_main,f
  2765     01AE  29AD               	goto	u6227
  2766     01AF  29B0               	nop2
  2767     01B0                     l5457:
  2768                           
  2769                           ;main.c: 95:                         reset_flag = 0x60;
  2770     01B0  3002               	movlw	2
  2771     01B1  1283               	bcf	3,5	;RP0=0, select bank0
  2772     01B2  1303               	bcf	3,6	;RP1=0, select bank0
  2773     01B3  00DD               	movwf	_control_flag
  2774     01B4                     l5459:
  2775                           
  2776                           ;main.c: 96:                         clear_screen();
  2777     01B4  3010               	movlw	16
  2778     01B5  1683               	bsf	3,5	;RP0=1, select bank3
  2779     01B6  1703               	bsf	3,6	;RP1=1, select bank3
  2780     01B7  00D1               	movwf	main@reset_flag^(0+384)
  2781     01B8                     l5461:
  2782                           
  2783                           ;main.c: 97: 
  2784     01B8  1283               	bcf	3,5	;RP0=0, select bank0
  2785     01B9  1303               	bcf	3,6	;RP1=0, select bank0
  2786     01BA  1512               	bsf	18,2	;volatile
  2787                           
  2788                           ;main.c: 98:                         break;;
  2789     01BB  2C6E               	goto	l5663
  2790     01BC                     l5463:
  2791     01BC  3011               	movlw	17
  2792     01BD  0650               	xorwf	_key,w
  2793     01BE  1D03               	btfss	3,2
  2794     01BF  29C1               	goto	u6031
  2795     01C0  29C2               	goto	u6030
  2796     01C1                     u6031:
  2797     01C1  2A4F               	goto	l5507
  2798     01C2                     u6030:
  2799     01C2                     l5465:
  2800     01C2  3003               	movlw	3
  2801     01C3  065D               	xorwf	_control_flag,w
  2802     01C4  1D03               	btfss	3,2
  2803     01C5  29C7               	goto	u6041
  2804     01C6  29C8               	goto	u6040
  2805     01C7                     u6041:
  2806     01C7  2A4F               	goto	l5507
  2807     01C8                     u6040:
  2808     01C8  2A32               	goto	l5505
  2809     01C9                     l5469:
  2810                           
  2811                           ;main.c: 107: 
  2812     01C9  3004               	movlw	4
  2813     01CA  00DD               	movwf	_control_flag
  2814                           
  2815                           ;main.c: 108:                         case 2:
  2816     01CB  3060               	movlw	96
  2817     01CC  1683               	bsf	3,5	;RP0=1, select bank3
  2818     01CD  1703               	bsf	3,6	;RP1=1, select bank3
  2819     01CE  00D1               	movwf	main@reset_flag^(0+384)
  2820     01CF                     l5471:
  2821                           
  2822                           ;main.c: 109:                             clear_screen();
  2823     01CF  160A  118A  2214  120A  118A  	fcall	_clear_screen
  2824                           
  2825                           ;main.c: 111:                         reset_flag = 0xB0;
  2826     01D4  2C6E               	goto	l5663
  2827     01D5                     l5473:
  2828                           
  2829                           ;main.c: 113: 
  2830     01D5  3065               	movlw	low (STR_10| (0+32768))
  2831     01D6  00A4               	movwf	log_car_event@event
  2832     01D7  3091               	movlw	high (STR_10| (0+32768))
  2833     01D8  00A5               	movwf	log_car_event@event+1
  2834     01D9  1683               	bsf	3,5	;RP0=1, select bank3
  2835     01DA  1703               	bsf	3,6	;RP1=1, select bank3
  2836     01DB  0850               	movf	main@speed^(0+384),w
  2837     01DC  1283               	bcf	3,5	;RP0=0, select bank0
  2838     01DD  1303               	bcf	3,6	;RP1=0, select bank0
  2839     01DE  00A6               	movwf	log_car_event@speed
  2840     01DF  160A  118A  26E7  120A  118A  	fcall	_log_car_event
  2841     01E4                     l5475:
  2842                           
  2843                           ;main.c: 114:                         clcd_write(0x0C,0);
  2844     01E4  3005               	movlw	5
  2845     01E5  1283               	bcf	3,5	;RP0=0, select bank0
  2846     01E6  1303               	bcf	3,6	;RP1=0, select bank0
  2847     01E7  00DD               	movwf	_control_flag
  2848     01E8                     l5477:
  2849                           
  2850                           ;main.c: 115: 
  2851     01E8  160A  118A  2214  120A  118A  	fcall	_clear_screen
  2852     01ED                     l5479:
  2853                           
  2854                           ;main.c: 116:                         break;;
  2855     01ED  303F               	movlw	low (STR_11| (0+32768))
  2856     01EE  00F6               	movwf	clcd_print@str
  2857     01EF  3091               	movlw	high (STR_11| (0+32768))
  2858     01F0  00F7               	movwf	clcd_print@str+1
  2859     01F1  3080               	movlw	128
  2860     01F2  00F8               	movwf	clcd_print@addr
  2861     01F3  160A  118A  23BF  120A  118A  	fcall	_clcd_print
  2862     01F8                     l5481:
  2863                           
  2864                           ;main.c: 117: 
  2865     01F8  01F2               	clrf	clcd_write@mode
  2866     01F9  300C               	movlw	12
  2867     01FA  160A  118A  22B6  120A  118A  	fcall	_clcd_write
  2868                           
  2869                           ;main.c: 119: 
  2870     01FF  2C6E               	goto	l5663
  2871     0200                     l5483:
  2872                           
  2873                           ;main.c: 122:                         reset_flag = 0x70;
  2874     0200  160A  118A  2214  120A  118A  	fcall	_clear_screen
  2875     0205                     l5485:
  2876                           
  2877                           ;main.c: 123:                         TMR2ON = 1;
  2878     0205  3006               	movlw	6
  2879     0206  1283               	bcf	3,5	;RP0=0, select bank0
  2880     0207  1303               	bcf	3,6	;RP1=0, select bank0
  2881     0208  00DD               	movwf	_control_flag
  2882     0209                     l5487:
  2883     0209  30B0               	movlw	176
  2884     020A  1683               	bsf	3,5	;RP0=1, select bank3
  2885     020B  1703               	bsf	3,6	;RP1=1, select bank3
  2886     020C  00D1               	movwf	main@reset_flag^(0+384)
  2887     020D  01F2               	clrf	clcd_write@mode
  2888     020E  300C               	movlw	12
  2889     020F  160A  118A  22B6  120A  118A  	fcall	_clcd_write
  2890     0214  2C6E               	goto	l5663
  2891     0215                     l5489:
  2892     0215  160A  118A  2214  120A  118A  	fcall	_clear_screen
  2893     021A                     l5491:
  2894     021A  3007               	movlw	7
  2895     021B  1283               	bcf	3,5	;RP0=0, select bank0
  2896     021C  1303               	bcf	3,6	;RP1=0, select bank0
  2897     021D  00DD               	movwf	_control_flag
  2898     021E                     l5493:
  2899     021E  3070               	movlw	112
  2900     021F  1683               	bsf	3,5	;RP0=1, select bank3
  2901     0220  1703               	bsf	3,6	;RP1=1, select bank3
  2902     0221  00D1               	movwf	main@reset_flag^(0+384)
  2903     0222  29B8               	goto	l5461
  2904     0223                     l5497:
  2905                           
  2906                           ;main.c: 148:                         control_flag = 0x08;
  2907     0223  3008               	movlw	8
  2908     0224  00DD               	movwf	_control_flag
  2909     0225                     l5499:
  2910                           
  2911                           ;main.c: 149:                         clear_screen();
  2912     0225  160A  118A  2214  120A  118A  	fcall	_clear_screen
  2913     022A                     l5501:
  2914                           
  2915                           ;main.c: 151:                         clcd_write(0x0C,0);
  2916     022A  01F2               	clrf	clcd_write@mode
  2917     022B  300C               	movlw	12
  2918     022C  160A  118A  22B6  120A  118A  	fcall	_clcd_write
  2919                           
  2920                           ;main.c: 153:                         break;;
  2921     0231  2C6E               	goto	l5663
  2922     0232                     l5505:
  2923     0232  1683               	bsf	3,5	;RP0=1, select bank3
  2924     0233  1703               	bsf	3,6	;RP1=1, select bank3
  2925     0234  084A               	movf	main@menu_p^(0+384),w
  2926     0235  1283               	bcf	3,5	;RP0=0, select bank0
  2927     0236  1303               	bcf	3,6	;RP1=0, select bank0
  2928     0237  00B5               	movwf	??_main
  2929     0238  01B6               	clrf	??_main+1
  2930                           
  2931                           ; Switch on 2 bytes has been partitioned into a top level switch of size 1, and 1 sub-sw
      +                          itches
  2932                           ; Switch size 1, requested type "simple"
  2933                           ; Number of cases is 1, Range of values is 0 to 0
  2934                           ; switch strategies available:
  2935                           ; Name         Instructions Cycles
  2936                           ; simple_byte            4     3 (average)
  2937                           ; direct_byte           11     8 (fixed)
  2938                           ; jumptable            260     6 (fixed)
  2939                           ;	Chosen strategy is simple_byte
  2940     0239  0836               	movf	??_main+1,w
  2941     023A  3A00               	xorlw	0	; case 0
  2942     023B  1903               	skipnz
  2943     023C  2A3E               	goto	l5831
  2944     023D  2C6E               	goto	l5663
  2945     023E                     l5831:
  2946                           
  2947                           ; Switch size 1, requested type "simple"
  2948                           ; Number of cases is 5, Range of values is 0 to 4
  2949                           ; switch strategies available:
  2950                           ; Name         Instructions Cycles
  2951                           ; simple_byte           16     9 (average)
  2952                           ; direct_byte           23     8 (fixed)
  2953                           ; jumptable            260     6 (fixed)
  2954                           ;	Chosen strategy is simple_byte
  2955     023E  0835               	movf	??_main,w
  2956     023F  3A00               	xorlw	0	; case 0
  2957     0240  1903               	skipnz
  2958     0241  29C9               	goto	l5469
  2959     0242  3A01               	xorlw	1	; case 1
  2960     0243  1903               	skipnz
  2961     0244  29D5               	goto	l5473
  2962     0245  3A03               	xorlw	3	; case 2
  2963     0246  1903               	skipnz
  2964     0247  2A00               	goto	l5483
  2965     0248  3A01               	xorlw	1	; case 3
  2966     0249  1903               	skipnz
  2967     024A  2A15               	goto	l5489
  2968     024B  3A07               	xorlw	7	; case 4
  2969     024C  1903               	skipnz
  2970     024D  2A23               	goto	l5497
  2971     024E  2C6E               	goto	l5663
  2972     024F                     l5507:
  2973     024F  3022               	movlw	34
  2974     0250  0650               	xorwf	_key,w
  2975     0251  1D03               	btfss	3,2
  2976     0252  2A54               	goto	u6051
  2977     0253  2A55               	goto	u6050
  2978     0254                     u6051:
  2979     0254  2A65               	goto	l5515
  2980     0255                     u6050:
  2981     0255                     l5509:
  2982     0255  3004               	movlw	4
  2983     0256  065D               	xorwf	_control_flag,w
  2984     0257  1D03               	btfss	3,2
  2985     0258  2A5A               	goto	u6061
  2986     0259  2A5B               	goto	u6060
  2987     025A                     u6061:
  2988     025A  2A65               	goto	l5515
  2989     025B                     u6060:
  2990     025B                     l5511:
  2991                           
  2992                           ;main.c: 157:         {;main.c: 159:             clear_screen();
  2993     025B  160A  118A  2214  120A  118A  	fcall	_clear_screen
  2994     0260                     l5513:
  2995                           
  2996                           ;main.c: 160:             control_flag = 0x03;
  2997     0260  3003               	movlw	3
  2998     0261  1283               	bcf	3,5	;RP0=0, select bank0
  2999     0262  1303               	bcf	3,6	;RP1=0, select bank0
  3000     0263  00DD               	movwf	_control_flag
  3001                           
  3002                           ;main.c: 163:         }
  3003     0264  2C6E               	goto	l5663
  3004     0265                     l5515:
  3005     0265  3022               	movlw	34
  3006     0266  0650               	xorwf	_key,w
  3007     0267  1D03               	btfss	3,2
  3008     0268  2A6A               	goto	u6071
  3009     0269  2A6B               	goto	u6070
  3010     026A                     u6071:
  3011     026A  2A72               	goto	l5523
  3012     026B                     u6070:
  3013     026B                     l5517:
  3014     026B  3005               	movlw	5
  3015     026C  065D               	xorwf	_control_flag,w
  3016     026D  1D03               	btfss	3,2
  3017     026E  2A70               	goto	u6081
  3018     026F  2A71               	goto	u6080
  3019     0270                     u6081:
  3020     0270  2A72               	goto	l5523
  3021     0271                     u6080:
  3022     0271  2A5B               	goto	l5511
  3023     0272                     l5523:
  3024     0272  3022               	movlw	34
  3025     0273  0650               	xorwf	_key,w
  3026     0274  1D03               	btfss	3,2
  3027     0275  2A77               	goto	u6091
  3028     0276  2A78               	goto	u6090
  3029     0277                     u6091:
  3030     0277  2A7F               	goto	l5531
  3031     0278                     u6090:
  3032     0278                     l5525:
  3033     0278  3006               	movlw	6
  3034     0279  065D               	xorwf	_control_flag,w
  3035     027A  1D03               	btfss	3,2
  3036     027B  2A7D               	goto	u6101
  3037     027C  2A7E               	goto	u6100
  3038     027D                     u6101:
  3039     027D  2A7F               	goto	l5531
  3040     027E                     u6100:
  3041     027E  2A5B               	goto	l5511
  3042     027F                     l5531:
  3043     027F  3022               	movlw	34
  3044     0280  0650               	xorwf	_key,w
  3045     0281  1D03               	btfss	3,2
  3046     0282  2A84               	goto	u6111
  3047     0283  2A85               	goto	u6110
  3048     0284                     u6111:
  3049     0284  2A8C               	goto	l5539
  3050     0285                     u6110:
  3051     0285                     l5533:
  3052     0285  3008               	movlw	8
  3053     0286  065D               	xorwf	_control_flag,w
  3054     0287  1D03               	btfss	3,2
  3055     0288  2A8A               	goto	u6121
  3056     0289  2A8B               	goto	u6120
  3057     028A                     u6121:
  3058     028A  2A8C               	goto	l5539
  3059     028B                     u6120:
  3060     028B  2A5B               	goto	l5511
  3061     028C                     l5539:
  3062     028C  3022               	movlw	34
  3063     028D  0650               	xorwf	_key,w
  3064     028E  1D03               	btfss	3,2
  3065     028F  2A91               	goto	u6131
  3066     0290  2A92               	goto	u6130
  3067     0291                     u6131:
  3068     0291  2AA9               	goto	l5549
  3069     0292                     u6130:
  3070     0292                     l5541:
  3071     0292  3007               	movlw	7
  3072     0293  065D               	xorwf	_control_flag,w
  3073     0294  1D03               	btfss	3,2
  3074     0295  2A97               	goto	u6141
  3075     0296  2A98               	goto	u6140
  3076     0297                     u6141:
  3077     0297  2AA9               	goto	l5549
  3078     0298                     u6140:
  3079     0298                     l5543:
  3080                           
  3081                           ;main.c: 183:         {;main.c: 184:             clear_screen();
  3082     0298  160A  118A  2214  120A  118A  	fcall	_clear_screen
  3083     029D                     l5545:
  3084                           
  3085                           ;main.c: 185:             control_flag = 0x03;
  3086     029D  3003               	movlw	3
  3087     029E  1283               	bcf	3,5	;RP0=0, select bank0
  3088     029F  1303               	bcf	3,6	;RP1=0, select bank0
  3089     02A0  00DD               	movwf	_control_flag
  3090     02A1                     l5547:
  3091                           
  3092                           ;main.c: 186:              clcd_write(0x0C,0);
  3093     02A1  01F2               	clrf	clcd_write@mode
  3094     02A2  300C               	movlw	12
  3095     02A3  160A  118A  22B6  120A  118A  	fcall	_clcd_write
  3096                           
  3097                           ;main.c: 188:         }
  3098     02A8  2C6E               	goto	l5663
  3099     02A9                     l5549:
  3100     02A9  3022               	movlw	34
  3101     02AA  0650               	xorwf	_key,w
  3102     02AB  1D03               	btfss	3,2
  3103     02AC  2AAE               	goto	u6151
  3104     02AD  2AAF               	goto	u6150
  3105     02AE                     u6151:
  3106     02AE  2AC3               	goto	l126
  3107     02AF                     u6150:
  3108     02AF                     l5551:
  3109     02AF  3003               	movlw	3
  3110     02B0  065D               	xorwf	_control_flag,w
  3111     02B1  1D03               	btfss	3,2
  3112     02B2  2AB4               	goto	u6161
  3113     02B3  2AB5               	goto	u6160
  3114     02B4                     u6161:
  3115     02B4  2AC3               	goto	l126
  3116     02B5                     u6160:
  3117     02B5                     l5553:
  3118                           
  3119                           ;main.c: 190:         {;main.c: 191:             clear_screen();
  3120     02B5  160A  118A  2214  120A  118A  	fcall	_clear_screen
  3121     02BA                     l5555:
  3122                           
  3123                           ;main.c: 192:             control_flag = 0x01;
  3124     02BA  1283               	bcf	3,5	;RP0=0, select bank0
  3125     02BB  1303               	bcf	3,6	;RP1=0, select bank0
  3126     02BC  01DD               	clrf	_control_flag
  3127     02BD  0ADD               	incf	_control_flag,f
  3128     02BE                     l5557:
  3129                           
  3130                           ;main.c: 193:             reset_flag = 0x10;
  3131     02BE  3010               	movlw	16
  3132     02BF  1683               	bsf	3,5	;RP0=1, select bank3
  3133     02C0  1703               	bsf	3,6	;RP1=1, select bank3
  3134     02C1  00D1               	movwf	main@reset_flag^(0+384)
  3135     02C2  2C6E               	goto	l5663
  3136     02C3                     l126:
  3137     02C3  2C6E               	goto	l5663
  3138     02C4                     l5559:
  3139                           
  3140                           ;main.c: 205:                 display_dashboard(event,speed);
  3141     02C4  1683               	bsf	3,5	;RP0=1, select bank3
  3142     02C5  1703               	bsf	3,6	;RP1=1, select bank3
  3143     02C6  0850               	movf	main@speed^(0+384),w
  3144     02C7  1283               	bcf	3,5	;RP0=0, select bank0
  3145     02C8  1303               	bcf	3,6	;RP1=0, select bank0
  3146     02C9  00A5               	movwf	display_dashboard@speed
  3147     02CA  30CC               	movlw	(low (main@event| (0+256)))& (0+255)
  3148     02CB  120A  158A  2081  120A  118A  	fcall	_display_dashboard
  3149                           
  3150                           ;main.c: 206:                 break;;
  3151     02D0  2C92               	goto	l5665
  3152     02D1                     l137:	
  3153                           ;main.c: 210:                 {;main.c: 211:                     case 0x30:
  3154                           
  3155                           
  3156                           ;main.c: 212:                         control_flag = 0x01;
  3157     02D1  01DD               	clrf	_control_flag
  3158     02D2  0ADD               	incf	_control_flag,f
  3159                           
  3160                           ;main.c: 213:                         TMR2ON = 0;
  3161     02D3  1112               	bcf	18,2	;volatile
  3162     02D4                     l5561:
  3163                           
  3164                           ;main.c: 214:                         clcd_write(0x0C,0);
  3165     02D4  01F2               	clrf	clcd_write@mode
  3166     02D5  300C               	movlw	12
  3167     02D6  160A  118A  22B6  120A  118A  	fcall	_clcd_write
  3168     02DB                     l5563:
  3169                           
  3170                           ;main.c: 215:                         _delay((unsigned long)((100)*(20000000/4000000.0))
      +                          );
  3171     02DB  30A5               	movlw	165
  3172     02DC  1283               	bcf	3,5	;RP0=0, select bank0
  3173     02DD  1303               	bcf	3,6	;RP1=0, select bank0
  3174     02DE  00B5               	movwf	??_main
  3175     02DF                     u6237:
  3176     02DF  0BB5               	decfsz	??_main,f
  3177     02E0  2ADF               	goto	u6237
  3178     02E1  2AE2               	nop2
  3179                           
  3180                           ;main.c: 216:                         break;;
  3181     02E2  2C92               	goto	l5665
  3182     02E3                     l5565:
  3183                           
  3184                           ;main.c: 218:                         control_flag = 0x03;
  3185     02E3  3003               	movlw	3
  3186     02E4  00DD               	movwf	_control_flag
  3187                           
  3188                           ;main.c: 219:                         reset_flag = 0x50;
  3189     02E5  3050               	movlw	80
  3190     02E6  1683               	bsf	3,5	;RP0=1, select bank3
  3191     02E7  1703               	bsf	3,6	;RP1=1, select bank3
  3192     02E8  00D1               	movwf	main@reset_flag^(0+384)
  3193     02E9                     l5567:
  3194                           
  3195                           ;main.c: 220:                         TMR2ON = 0;
  3196     02E9  1283               	bcf	3,5	;RP0=0, select bank0
  3197     02EA  1303               	bcf	3,6	;RP1=0, select bank0
  3198     02EB  1112               	bcf	18,2	;volatile
  3199     02EC                     l5569:
  3200                           
  3201                           ;main.c: 221:                         clcd_write(0x0C,0);
  3202     02EC  01F2               	clrf	clcd_write@mode
  3203     02ED  300C               	movlw	12
  3204     02EE  160A  118A  22B6  120A  118A  	fcall	_clcd_write
  3205     02F3                     l5571:
  3206                           
  3207                           ;main.c: 222:                         _delay((unsigned long)((100)*(20000000/4000000.0))
      +                          );
  3208     02F3  30A5               	movlw	165
  3209     02F4  1283               	bcf	3,5	;RP0=0, select bank0
  3210     02F5  1303               	bcf	3,6	;RP1=0, select bank0
  3211     02F6  00B5               	movwf	??_main
  3212     02F7                     u6247:
  3213     02F7  0BB5               	decfsz	??_main,f
  3214     02F8  2AF7               	goto	u6247
  3215     02F9  2AFA               	nop2
  3216                           
  3217                           ;main.c: 223:                         continue;
  3218     02FA  289D               	goto	l5397
  3219     02FB                     l5577:
  3220     02FB  1683               	bsf	3,5	;RP0=1, select bank3
  3221     02FC  1703               	bsf	3,6	;RP1=1, select bank3
  3222     02FD  0851               	movf	main@reset_flag^(0+384),w
  3223     02FE  1283               	bcf	3,5	;RP0=0, select bank0
  3224     02FF  1303               	bcf	3,6	;RP1=0, select bank0
  3225     0300  00A5               	movwf	login@reset_flag
  3226     0301  0850               	movf	_key,w
  3227     0302  120A  158A  2353  120A  118A  	fcall	_login
  3228     0307  1283               	bcf	3,5	;RP0=0, select bank0
  3229     0308  1303               	bcf	3,6	;RP1=0, select bank0
  3230     0309  00B5               	movwf	??_main
  3231     030A  01B6               	clrf	??_main+1
  3232                           
  3233                           ; Switch on 2 bytes has been partitioned into a top level switch of size 1, and 1 sub-sw
      +                          itches
  3234                           ; Switch size 1, requested type "simple"
  3235                           ; Number of cases is 1, Range of values is 0 to 0
  3236                           ; switch strategies available:
  3237                           ; Name         Instructions Cycles
  3238                           ; simple_byte            4     3 (average)
  3239                           ; direct_byte           11     8 (fixed)
  3240                           ; jumptable            260     6 (fixed)
  3241                           ;	Chosen strategy is simple_byte
  3242     030B  0836               	movf	??_main+1,w
  3243     030C  3A00               	xorlw	0	; case 0
  3244     030D  1903               	skipnz
  3245     030E  2B10               	goto	l5833
  3246     030F  2C92               	goto	l5665
  3247     0310                     l5833:
  3248                           
  3249                           ; Switch size 1, requested type "simple"
  3250                           ; Number of cases is 2, Range of values is 48 to 64
  3251                           ; switch strategies available:
  3252                           ; Name         Instructions Cycles
  3253                           ; simple_byte            7     4 (average)
  3254                           ; direct_byte           62    11 (fixed)
  3255                           ; jumptable            263     9 (fixed)
  3256                           ;	Chosen strategy is simple_byte
  3257     0310  0835               	movf	??_main,w
  3258     0311  3A30               	xorlw	48	; case 48
  3259     0312  1903               	skipnz
  3260     0313  2AD1               	goto	l137
  3261     0314  3A70               	xorlw	112	; case 64
  3262     0315  1903               	skipnz
  3263     0316  2AE3               	goto	l5565
  3264     0317  2C92               	goto	l5665
  3265     0318                     l5579:
  3266                           
  3267                           ;main.c: 228:                 menu_p = (login_menu(key,reset_flag));
  3268     0318  1683               	bsf	3,5	;RP0=1, select bank3
  3269     0319  1703               	bsf	3,6	;RP1=1, select bank3
  3270     031A  0851               	movf	main@reset_flag^(0+384),w
  3271     031B  1283               	bcf	3,5	;RP0=0, select bank0
  3272     031C  1303               	bcf	3,6	;RP1=0, select bank0
  3273     031D  00A5               	movwf	login_menu@reset_flag
  3274     031E  0850               	movf	_key,w
  3275     031F  120A  118A  273A  120A  118A  	fcall	_login_menu
  3276     0324  1683               	bsf	3,5	;RP0=1, select bank3
  3277     0325  1703               	bsf	3,6	;RP1=1, select bank3
  3278     0326  00CA               	movwf	main@menu_p^(0+384)
  3279                           
  3280                           ;main.c: 229:                 break;;
  3281     0327  2C92               	goto	l5665
  3282     0328                     l5581:
  3283                           
  3284                           ;main.c: 233:                  vl = view_log(key,reset_flag,control_flag);
  3285     0328  1683               	bsf	3,5	;RP0=1, select bank3
  3286     0329  1703               	bsf	3,6	;RP1=1, select bank3
  3287     032A  0851               	movf	main@reset_flag^(0+384),w
  3288     032B  1283               	bcf	3,5	;RP0=0, select bank0
  3289     032C  1303               	bcf	3,6	;RP1=0, select bank0
  3290     032D  00A5               	movwf	view_log@reset_flag
  3291     032E  085D               	movf	_control_flag,w
  3292     032F  00A6               	movwf	view_log@control_flag
  3293     0330  0850               	movf	_key,w
  3294     0331  120A  158A  24B4  120A  118A  	fcall	_view_log
  3295     0336  1283               	bcf	3,5	;RP0=0, select bank0
  3296     0337  1303               	bcf	3,6	;RP1=0, select bank0
  3297     0338  00CE               	movwf	_vl
  3298     0339                     l5583:
  3299                           
  3300                           ;main.c: 234:                  if(vl == 0)
  3301     0339  084E               	movf	_vl,w
  3302     033A  1D03               	btfss	3,2
  3303     033B  2B3D               	goto	u6171
  3304     033C  2B3E               	goto	u6170
  3305     033D                     u6171:
  3306     033D  2C92               	goto	l5665
  3307     033E                     u6170:
  3308     033E                     l5585:
  3309                           
  3310                           ;main.c: 237:                       clcd_print("NO LOGS AVAILABLE", (0x80 + 0));
  3311     033E  3000               	movlw	low (STR_12| (0+32768))
  3312     033F  00F6               	movwf	clcd_print@str
  3313     0340  3090               	movlw	high (STR_12| (0+32768))
  3314     0341  00F7               	movwf	clcd_print@str+1
  3315     0342  3080               	movlw	128
  3316     0343  00F8               	movwf	clcd_print@addr
  3317     0344  160A  118A  23BF  120A  118A  	fcall	_clcd_print
  3318     0349                     l5587:
  3319                           
  3320                           ;main.c: 238:         _delay((unsigned long)((2000)*(20000000/4000.0)));
  3321     0349  3033               	movlw	51
  3322     034A  1283               	bcf	3,5	;RP0=0, select bank0
  3323     034B  1303               	bcf	3,6	;RP1=0, select bank0
  3324     034C  00B7               	movwf	??_main+2
  3325     034D  30BB               	movlw	187
  3326     034E  00B6               	movwf	??_main+1
  3327     034F  30DF               	movlw	223
  3328     0350  00B5               	movwf	??_main
  3329     0351                     u6257:
  3330     0351  0BB5               	decfsz	??_main,f
  3331     0352  2B51               	goto	u6257
  3332     0353  0BB6               	decfsz	??_main+1,f
  3333     0354  2B51               	goto	u6257
  3334     0355  0BB7               	decfsz	??_main+2,f
  3335     0356  2B51               	goto	u6257
  3336     0357                     l5589:
  3337                           
  3338                           ;main.c: 239: clear_screen();
  3339     0357  160A  118A  2214  120A  118A  	fcall	_clear_screen
  3340     035C                     l5591:
  3341                           
  3342                           ;main.c: 240:                  control_flag = 0x03;
  3343     035C  3003               	movlw	3
  3344     035D  1283               	bcf	3,5	;RP0=0, select bank0
  3345     035E  1303               	bcf	3,6	;RP1=0, select bank0
  3346     035F  00DD               	movwf	_control_flag
  3347     0360  2C92               	goto	l5665
  3348     0361                     l5593:
  3349                           
  3350                           ;main.c: 247:                  chng_pwd = change_pwd(key,reset_flag,control_flag);
  3351     0361  1683               	bsf	3,5	;RP0=1, select bank3
  3352     0362  1703               	bsf	3,6	;RP1=1, select bank3
  3353     0363  0851               	movf	main@reset_flag^(0+384),w
  3354     0364  1283               	bcf	3,5	;RP0=0, select bank0
  3355     0365  1303               	bcf	3,6	;RP1=0, select bank0
  3356     0366  00A5               	movwf	change_pwd@reset_flag
  3357     0367  085D               	movf	_control_flag,w
  3358     0368  00A6               	movwf	change_pwd@control_flag
  3359     0369  0850               	movf	_key,w
  3360     036A  120A  158A  2625  120A  118A  	fcall	_change_pwd
  3361     036F  1283               	bcf	3,5	;RP0=0, select bank0
  3362     0370  1303               	bcf	3,6	;RP1=0, select bank0
  3363     0371  00CD               	movwf	_chng_pwd
  3364     0372                     l5595:
  3365                           
  3366                           ;main.c: 249:                  if(chng_pwd == 0x09)
  3367     0372  3009               	movlw	9
  3368     0373  064D               	xorwf	_chng_pwd,w
  3369     0374  1D03               	btfss	3,2
  3370     0375  2B77               	goto	u6181
  3371     0376  2B78               	goto	u6180
  3372     0377                     u6181:
  3373     0377  2BAE               	goto	l5613
  3374     0378                     u6180:
  3375     0378                     l5597:
  3376                           
  3377                           ;main.c: 250:                  {;main.c: 251:                      clear_screen();
  3378     0378  160A  118A  2214  120A  118A  	fcall	_clear_screen
  3379     037D                     l5599:
  3380                           
  3381                           ;main.c: 252:                       TMR2ON = 0;
  3382     037D  1283               	bcf	3,5	;RP0=0, select bank0
  3383     037E  1303               	bcf	3,6	;RP1=0, select bank0
  3384     037F  1112               	bcf	18,2	;volatile
  3385     0380                     l5601:
  3386                           
  3387                           ;main.c: 254:                      clcd_print("PWD CHANGED",(0x80 + 2));
  3388     0380  30E8               	movlw	low (STR_13| (0+32768))
  3389     0381  00F6               	movwf	clcd_print@str
  3390     0382  3090               	movlw	high (STR_13| (0+32768))
  3391     0383  00F7               	movwf	clcd_print@str+1
  3392     0384  3082               	movlw	130
  3393     0385  00F8               	movwf	clcd_print@addr
  3394     0386  160A  118A  23BF  120A  118A  	fcall	_clcd_print
  3395     038B                     l5603:
  3396                           
  3397                           ;main.c: 255:                      _delay((unsigned long)((3000)*(20000000/4000.0)));
  3398     038B  304D               	movlw	77
  3399     038C  1283               	bcf	3,5	;RP0=0, select bank0
  3400     038D  1303               	bcf	3,6	;RP1=0, select bank0
  3401     038E  00B7               	movwf	??_main+2
  3402     038F  3019               	movlw	25
  3403     0390  00B6               	movwf	??_main+1
  3404     0391  304F               	movlw	79
  3405     0392  00B5               	movwf	??_main
  3406     0393                     u6267:
  3407     0393  0BB5               	decfsz	??_main,f
  3408     0394  2B93               	goto	u6267
  3409     0395  0BB6               	decfsz	??_main+1,f
  3410     0396  2B93               	goto	u6267
  3411     0397  0BB7               	decfsz	??_main+2,f
  3412     0398  2B93               	goto	u6267
  3413     0399                     l5605:
  3414                           
  3415                           ;main.c: 256:                      clear_screen();
  3416     0399  160A  118A  2214  120A  118A  	fcall	_clear_screen
  3417     039E                     l5607:
  3418                           
  3419                           ;main.c: 257:                      control_flag = 0x03;
  3420     039E  3003               	movlw	3
  3421     039F  1283               	bcf	3,5	;RP0=0, select bank0
  3422     03A0  1303               	bcf	3,6	;RP1=0, select bank0
  3423     03A1  00DD               	movwf	_control_flag
  3424     03A2                     l5609:
  3425                           
  3426                           ;main.c: 258:                      reset_flag = 0x70;
  3427     03A2  3070               	movlw	112
  3428     03A3  1683               	bsf	3,5	;RP0=1, select bank3
  3429     03A4  1703               	bsf	3,6	;RP1=1, select bank3
  3430     03A5  00D1               	movwf	main@reset_flag^(0+384)
  3431     03A6                     l5611:
  3432                           
  3433                           ;main.c: 259:                      clcd_write(0x0C,0);
  3434     03A6  01F2               	clrf	clcd_write@mode
  3435     03A7  300C               	movlw	12
  3436     03A8  160A  118A  22B6  120A  118A  	fcall	_clcd_write
  3437                           
  3438                           ;main.c: 260:                  }
  3439     03AD  2C92               	goto	l5665
  3440     03AE                     l5613:
  3441     03AE  300A               	movlw	10
  3442     03AF  064D               	xorwf	_chng_pwd,w
  3443     03B0  1D03               	btfss	3,2
  3444     03B1  2BB3               	goto	u6191
  3445     03B2  2BB4               	goto	u6190
  3446     03B3                     u6191:
  3447     03B3  2C92               	goto	l5665
  3448     03B4                     u6190:
  3449     03B4                     l5615:
  3450                           
  3451                           ;main.c: 262:                  {;main.c: 263:                      clear_screen();
  3452     03B4  160A  118A  2214  120A  118A  	fcall	_clear_screen
  3453     03B9                     l5617:
  3454                           
  3455                           ;main.c: 264:                       TMR2ON = 0;
  3456     03B9  1283               	bcf	3,5	;RP0=0, select bank0
  3457     03BA  1303               	bcf	3,6	;RP1=0, select bank0
  3458     03BB  1112               	bcf	18,2	;volatile
  3459                           
  3460                           ;main.c: 265:                         clcd_write(0x0C,0);
  3461     03BC  01F2               	clrf	clcd_write@mode
  3462     03BD  300C               	movlw	12
  3463     03BE  160A  118A  22B6  120A  118A  	fcall	_clcd_write
  3464     03C3                     l5619:
  3465                           
  3466                           ;main.c: 266:                      clcd_print("PWD NOT CHANGED",(0x80 + 2));
  3467     03C3  3065               	movlw	low (STR_14| (0+32768))
  3468     03C4  00F6               	movwf	clcd_print@str
  3469     03C5  3090               	movlw	high (STR_14| (0+32768))
  3470     03C6  00F7               	movwf	clcd_print@str+1
  3471     03C7  3082               	movlw	130
  3472     03C8  00F8               	movwf	clcd_print@addr
  3473     03C9  160A  118A  23BF  120A  118A  	fcall	_clcd_print
  3474     03CE                     l5621:
  3475                           
  3476                           ;main.c: 267:                      clcd_print("TRY AGAIN",(0xC0 + 3));
  3477     03CE  3013               	movlw	low (STR_15| (0+32768))
  3478     03CF  00F6               	movwf	clcd_print@str
  3479     03D0  3091               	movlw	high (STR_15| (0+32768))
  3480     03D1  00F7               	movwf	clcd_print@str+1
  3481     03D2  30C3               	movlw	195
  3482     03D3  00F8               	movwf	clcd_print@addr
  3483     03D4  160A  118A  23BF  120A  118A  	fcall	_clcd_print
  3484     03D9                     l5623:
  3485                           
  3486                           ;main.c: 268:                      _delay((unsigned long)((3000)*(20000000/4000.0)));
  3487     03D9  304D               	movlw	77
  3488     03DA  1283               	bcf	3,5	;RP0=0, select bank0
  3489     03DB  1303               	bcf	3,6	;RP1=0, select bank0
  3490     03DC  00B7               	movwf	??_main+2
  3491     03DD  3019               	movlw	25
  3492     03DE  00B6               	movwf	??_main+1
  3493     03DF  304F               	movlw	79
  3494     03E0  00B5               	movwf	??_main
  3495     03E1                     u6277:
  3496     03E1  0BB5               	decfsz	??_main,f
  3497     03E2  2BE1               	goto	u6277
  3498     03E3  0BB6               	decfsz	??_main+1,f
  3499     03E4  2BE1               	goto	u6277
  3500     03E5  0BB7               	decfsz	??_main+2,f
  3501     03E6  2BE1               	goto	u6277
  3502     03E7                     l5625:
  3503                           
  3504                           ;main.c: 269:                      clear_screen();
  3505     03E7  160A  118A  2214  120A  118A  	fcall	_clear_screen
  3506                           
  3507                           ;main.c: 270:                      control_flag = 0x03;
  3508     03EC  3003               	movlw	3
  3509     03ED  1283               	bcf	3,5	;RP0=0, select bank0
  3510     03EE  1303               	bcf	3,6	;RP1=0, select bank0
  3511     03EF  00DD               	movwf	_control_flag
  3512                           
  3513                           ;main.c: 271:                      reset_flag = 0x70;
  3514     03F0  3070               	movlw	112
  3515     03F1  1683               	bsf	3,5	;RP0=1, select bank3
  3516     03F2  1703               	bsf	3,6	;RP1=1, select bank3
  3517     03F3  00D1               	movwf	main@reset_flag^(0+384)
  3518     03F4  2C92               	goto	l5665
  3519     03F5                     l5627:
  3520                           
  3521                           ;main.c: 277:                 clear_screen();
  3522     03F5  160A  118A  2214  120A  118A  	fcall	_clear_screen
  3523     03FA                     l5629:
  3524                           
  3525                           ;main.c: 278:                 reset_flag = 0x90;
  3526     03FA  3090               	movlw	144
  3527     03FB  1683               	bsf	3,5	;RP0=1, select bank3
  3528     03FC  1703               	bsf	3,6	;RP1=1, select bank3
  3529     03FD  00D1               	movwf	main@reset_flag^(0+384)
  3530     03FE                     l5631:
  3531                           
  3532                           ;main.c: 279:                clear_lg = clear_log(reset_flag);
  3533     03FE  0851               	movf	main@reset_flag^(0+384),w
  3534     03FF  160A  118A  2225  120A  118A  	fcall	_clear_log
  3535     0404  1283               	bcf	3,5	;RP0=0, select bank0
  3536     0405  1303               	bcf	3,6	;RP1=0, select bank0
  3537     0406  00CC               	movwf	_clear_lg
  3538     0407                     l5633:
  3539                           
  3540                           ;main.c: 280:                if(clear_lg == 0xA0)
  3541     0407  30A0               	movlw	160
  3542     0408  064C               	xorwf	_clear_lg,w
  3543     0409  1D03               	btfss	3,2
  3544     040A  2C0C               	goto	u6201
  3545     040B  2C0D               	goto	u6200
  3546     040C                     u6201:
  3547     040C  2C92               	goto	l5665
  3548     040D                     u6200:
  3549     040D                     l5635:
  3550                           
  3551                           ;main.c: 281:                {;main.c: 282:                     clcd_print("LOGS CLEARED
      +                          ",(0x80 + 3));
  3552     040D  30CE               	movlw	low (STR_16| (0+32768))
  3553     040E  00F6               	movwf	clcd_print@str
  3554     040F  3090               	movlw	high (STR_16| (0+32768))
  3555     0410  00F7               	movwf	clcd_print@str+1
  3556     0411  3083               	movlw	131
  3557     0412  00F8               	movwf	clcd_print@addr
  3558     0413  160A  118A  23BF  120A  118A  	fcall	_clcd_print
  3559                           
  3560                           ;main.c: 283:                     clcd_print("SUCCESSFULLY",(0xC0 + 3));
  3561     0418  30DB               	movlw	low (STR_17| (0+32768))
  3562     0419  00F6               	movwf	clcd_print@str
  3563     041A  3090               	movlw	high (STR_17| (0+32768))
  3564     041B  00F7               	movwf	clcd_print@str+1
  3565     041C  30C3               	movlw	195
  3566     041D  00F8               	movwf	clcd_print@addr
  3567     041E  160A  118A  23BF  120A  118A  	fcall	_clcd_print
  3568     0423                     l5637:
  3569                           
  3570                           ;main.c: 284:                     _delay((unsigned long)((500)*(20000000/4000.0)));
  3571     0423  300D               	movlw	13
  3572     0424  1283               	bcf	3,5	;RP0=0, select bank0
  3573     0425  1303               	bcf	3,6	;RP1=0, select bank0
  3574     0426  00B7               	movwf	??_main+2
  3575     0427  30AF               	movlw	175
  3576     0428  00B6               	movwf	??_main+1
  3577     0429  30B5               	movlw	181
  3578     042A  00B5               	movwf	??_main
  3579     042B                     u6287:
  3580     042B  0BB5               	decfsz	??_main,f
  3581     042C  2C2B               	goto	u6287
  3582     042D  0BB6               	decfsz	??_main+1,f
  3583     042E  2C2B               	goto	u6287
  3584     042F  0BB7               	decfsz	??_main+2,f
  3585     0430  2C2B               	goto	u6287
  3586     0431  2C32               	nop2
  3587     0432  2B57               	goto	l5589
  3588     0433                     l5643:
  3589                           
  3590                           ;main.c: 294:                 time_set = set_time(key,control_flag);
  3591     0433  085D               	movf	_control_flag,w
  3592     0434  00A5               	movwf	set_time@control_flag
  3593     0435  0850               	movf	_key,w
  3594     0436  120A  118A  249A  120A  118A  	fcall	_set_time
  3595     043B  1683               	bsf	3,5	;RP0=1, select bank3
  3596     043C  1703               	bsf	3,6	;RP1=1, select bank3
  3597     043D  00CB               	movwf	main@time_set^(0+384)
  3598     043E                     l5645:
  3599                           
  3600                           ;main.c: 295:                 if(time_set == 1)
  3601     043E  034B               	decf	main@time_set^(0+384),w
  3602     043F  1D03               	btfss	3,2
  3603     0440  2C42               	goto	u6211
  3604     0441  2C43               	goto	u6210
  3605     0442                     u6211:
  3606     0442  2C92               	goto	l5665
  3607     0443                     u6210:
  3608     0443                     l5647:
  3609                           
  3610                           ;main.c: 296:                 {;main.c: 298:         clcd_print("  TIME CHANGED  ",(0x80
      +                           + 0));
  3611     0443  3023               	movlw	low (STR_18| (0+32768))
  3612     0444  00F6               	movwf	clcd_print@str
  3613     0445  3090               	movlw	high (STR_18| (0+32768))
  3614     0446  00F7               	movwf	clcd_print@str+1
  3615     0447  3080               	movlw	128
  3616     0448  00F8               	movwf	clcd_print@addr
  3617     0449  160A  118A  23BF  120A  118A  	fcall	_clcd_print
  3618                           
  3619                           ;main.c: 299:         clcd_print("  SUCCESSFULLY  ",(0xC0 + 0));
  3620     044E  3034               	movlw	low (STR_19| (0+32768))
  3621     044F  00F6               	movwf	clcd_print@str
  3622     0450  3090               	movlw	high (STR_19| (0+32768))
  3623     0451  00F7               	movwf	clcd_print@str+1
  3624     0452  30C0               	movlw	192
  3625     0453  00F8               	movwf	clcd_print@addr
  3626     0454  160A  118A  23BF  120A  118A  	fcall	_clcd_print
  3627     0459                     l5649:
  3628                           
  3629                           ;main.c: 300:         _delay((unsigned long)((3000)*(20000000/4000.0)));
  3630     0459  304D               	movlw	77
  3631     045A  1283               	bcf	3,5	;RP0=0, select bank0
  3632     045B  1303               	bcf	3,6	;RP1=0, select bank0
  3633     045C  00B7               	movwf	??_main+2
  3634     045D  3019               	movlw	25
  3635     045E  00B6               	movwf	??_main+1
  3636     045F  304F               	movlw	79
  3637     0460  00B5               	movwf	??_main
  3638     0461                     u6297:
  3639     0461  0BB5               	decfsz	??_main,f
  3640     0462  2C61               	goto	u6297
  3641     0463  0BB6               	decfsz	??_main+1,f
  3642     0464  2C61               	goto	u6297
  3643     0465  0BB7               	decfsz	??_main+2,f
  3644     0466  2C61               	goto	u6297
  3645     0467  2B57               	goto	l5589
  3646     0468                     l5655:
  3647                           
  3648                           ;main.c: 311:                     download_log();
  3649     0468  120A  158A  2220  120A  118A  	fcall	_download_log
  3650     046D  2B57               	goto	l5589
  3651     046E                     l5663:
  3652     046E  1283               	bcf	3,5	;RP0=0, select bank0
  3653     046F  1303               	bcf	3,6	;RP1=0, select bank0
  3654     0470  085D               	movf	_control_flag,w
  3655     0471  00B5               	movwf	??_main
  3656     0472  01B6               	clrf	??_main+1
  3657                           
  3658                           ; Switch on 2 bytes has been partitioned into a top level switch of size 1, and 1 sub-sw
      +                          itches
  3659                           ; Switch size 1, requested type "simple"
  3660                           ; Number of cases is 1, Range of values is 0 to 0
  3661                           ; switch strategies available:
  3662                           ; Name         Instructions Cycles
  3663                           ; simple_byte            4     3 (average)
  3664                           ; direct_byte           11     8 (fixed)
  3665                           ; jumptable            260     6 (fixed)
  3666                           ;	Chosen strategy is simple_byte
  3667     0473  0836               	movf	??_main+1,w
  3668     0474  3A00               	xorlw	0	; case 0
  3669     0475  1903               	skipnz
  3670     0476  2C78               	goto	l5835
  3671     0477  2C92               	goto	l5665
  3672     0478                     l5835:
  3673                           
  3674                           ; Switch size 1, requested type "simple"
  3675                           ; Number of cases is 8, Range of values is 1 to 8
  3676                           ; switch strategies available:
  3677                           ; Name         Instructions Cycles
  3678                           ; simple_byte           25    13 (average)
  3679                           ; direct_byte           35    11 (fixed)
  3680                           ; jumptable            263     9 (fixed)
  3681                           ;	Chosen strategy is simple_byte
  3682     0478  0835               	movf	??_main,w
  3683     0479  3A01               	xorlw	1	; case 1
  3684     047A  1903               	skipnz
  3685     047B  2AC4               	goto	l5559
  3686     047C  3A03               	xorlw	3	; case 2
  3687     047D  1903               	skipnz
  3688     047E  2AFB               	goto	l5577
  3689     047F  3A01               	xorlw	1	; case 3
  3690     0480  1903               	skipnz
  3691     0481  2B18               	goto	l5579
  3692     0482  3A07               	xorlw	7	; case 4
  3693     0483  1903               	skipnz
  3694     0484  2B28               	goto	l5581
  3695     0485  3A01               	xorlw	1	; case 5
  3696     0486  1903               	skipnz
  3697     0487  2BF5               	goto	l5627
  3698     0488  3A03               	xorlw	3	; case 6
  3699     0489  1903               	skipnz
  3700     048A  2C68               	goto	l5655
  3701     048B  3A01               	xorlw	1	; case 7
  3702     048C  1903               	skipnz
  3703     048D  2B61               	goto	l5593
  3704     048E  3A0F               	xorlw	15	; case 8
  3705     048F  1903               	skipnz
  3706     0490  2C33               	goto	l5643
  3707     0491  2C92               	goto	l5665
  3708     0492                     l5665:
  3709                           
  3710                           ;main.c: 320:         reset_flag = 0x20;
  3711     0492  3020               	movlw	32
  3712     0493  1683               	bsf	3,5	;RP0=1, select bank3
  3713     0494  1703               	bsf	3,6	;RP1=1, select bank3
  3714     0495  00D1               	movwf	main@reset_flag^(0+384)
  3715     0496  289D               	goto	l5397
  3716     0497  120A  118A  280C   	ljmp	start
  3717     049A                     __end_of_main:
  3718                           
  3719                           	psect	text1
  3720     0CB4                     __ptext1:	
  3721 ;; *************** function _view_log *****************
  3722 ;; Defined at:
  3723 ;;		line 112 in file "cbb.c"
  3724 ;; Parameters:    Size  Location     Type
  3725 ;;  key             1    wreg     unsigned char 
  3726 ;;  reset_flag      1    5[BANK0 ] unsigned char 
  3727 ;;  control_flag    1    6[BANK0 ] unsigned char 
  3728 ;; Auto vars:     Size  Location     Type
  3729 ;;  key             1   13[BANK0 ] unsigned char 
  3730 ;;  i               2   14[BANK0 ] int 
  3731 ;;  i               4    7[BANK0 ] unsigned long 
  3732 ;;  new             2   11[BANK0 ] int 
  3733 ;; Return value:  Size  Location     Type
  3734 ;;                  1    wreg      unsigned char 
  3735 ;; Registers used:
  3736 ;;		wreg, fsr0l, fsr0h, status,2, status,0, btemp+1, pclath, cstack
  3737 ;; Tracked objects:
  3738 ;;		On entry : 0/0
  3739 ;;		On exit  : 0/0
  3740 ;;		Unchanged: 0/0
  3741 ;; Data sizes:     COMMON   BANK0   BANK1   BANK3   BANK2
  3742 ;;      Params:         0       2       0       0       0
  3743 ;;      Locals:         0       9       0       0       0
  3744 ;;      Temps:          0       0       0       0       0
  3745 ;;      Totals:         0      11       0       0       0
  3746 ;;Total ram usage:       11 bytes
  3747 ;; Hardware stack levels used: 1
  3748 ;; Hardware stack levels required when called: 5
  3749 ;; This function calls:
  3750 ;;		___awmod
  3751 ;;		___bmul
  3752 ;;		_clcd_print
  3753 ;;		_clcd_putch
  3754 ;;		_clcd_write
  3755 ;;		_eeprom_at24c04_randon_read
  3756 ;; This function is called by:
  3757 ;;		_main
  3758 ;; This function uses a non-reentrant model
  3759 ;;
  3760                           
  3761     0CB4                     _view_log:	
  3762                           ;psect for function _view_log
  3763                           
  3764                           
  3765                           ;incstack = 0
  3766                           ; Regs used in _view_log: [wreg-fsr0h+status,2+status,0+btemp+1+pclath+cstack]
  3767                           ;view_log@key stored from wreg
  3768     0CB4  1283               	bcf	3,5	;RP0=0, select bank0
  3769     0CB5  1303               	bcf	3,6	;RP1=0, select bank0
  3770     0CB6  00AD               	movwf	view_log@key
  3771     0CB7                     l4941:
  3772                           
  3773                           ;cbb.c: 112: unsigned char view_log(unsigned char key,unsigned char reset_flag, unsigned
      +                           char control_flag);cbb.c: 113: {;cbb.c: 115:     static unsigned char addr = 0x05;;cbb.
      +                          c: 117:     static unsigned char num = 0;;cbb.c: 118:     int new;;cbb.c: 120:     if (p
      +                          os2 == -1)
  3774     0CB7  0A53               	incf	_pos2,w
  3775     0CB8  1D03               	skipz
  3776     0CB9  2CBE               	goto	u5101
  3777     0CBA  0A54               	incf	_pos2+1,w
  3778     0CBB  1D03               	btfss	3,2
  3779     0CBC  2CBE               	goto	u5101
  3780     0CBD  2CBF               	goto	u5100
  3781     0CBE                     u5101:
  3782     0CBE  2CC1               	goto	l4949
  3783     0CBF                     u5100:
  3784     0CBF                     l4943:
  3785                           
  3786                           ;cbb.c: 121:     {;cbb.c: 124:         return 0;
  3787     0CBF  3000               	movlw	0
  3788     0CC0  2E24               	goto	l389
  3789     0CC1                     l4949:
  3790                           
  3791                           ;cbb.c: 127:     {;cbb.c: 129:         if (reset_flag == 0x60)
  3792     0CC1  3060               	movlw	96
  3793     0CC2  0625               	xorwf	view_log@reset_flag,w
  3794     0CC3  1D03               	btfss	3,2
  3795     0CC4  2CC6               	goto	u5111
  3796     0CC5  2CC7               	goto	u5110
  3797     0CC6                     u5111:
  3798     0CC6  2CCA               	goto	l4955
  3799     0CC7                     u5110:
  3800     0CC7                     l4951:
  3801                           
  3802                           ;cbb.c: 130:         {;cbb.c: 131:             num = 0;
  3803     0CC7  01C9               	clrf	view_log@num
  3804     0CC8                     l4953:
  3805                           
  3806                           ;cbb.c: 132:             addr = 0x05;
  3807     0CC8  3005               	movlw	5
  3808     0CC9  00DA               	movwf	view_log@addr
  3809     0CCA                     l4955:
  3810                           
  3811                           ;cbb.c: 134:         new = (overflow)? (pos + 1) % 10 : 0;
  3812     0CCA  084A               	movf	_overflow,w
  3813     0CCB  1D03               	btfss	3,2
  3814     0CCC  2CCE               	goto	u5121
  3815     0CCD  2CCF               	goto	u5120
  3816     0CCE                     u5121:
  3817     0CCE  2CD2               	goto	l4959
  3818     0CCF                     u5120:
  3819     0CCF                     l4957:
  3820     0CCF  01AB               	clrf	view_log@new
  3821     0CD0  01AC               	clrf	view_log@new+1
  3822     0CD1  2CE8               	goto	l4961
  3823     0CD2                     l4959:
  3824     0CD2  300A               	movlw	10
  3825     0CD3  00F2               	movwf	___awmod@divisor
  3826     0CD4  3000               	movlw	0
  3827     0CD5  00F3               	movwf	___awmod@divisor+1
  3828     0CD6  085B               	movf	_pos,w
  3829     0CD7  3E01               	addlw	1
  3830     0CD8  00F4               	movwf	___awmod@dividend
  3831     0CD9  3000               	movlw	0
  3832     0CDA  1803               	skipnc
  3833     0CDB  3001               	movlw	1
  3834     0CDC  00F5               	movwf	___awmod@dividend+1
  3835     0CDD  160A  118A  273F  120A  158A  	fcall	___awmod
  3836     0CE2  0873               	movf	?___awmod+1,w
  3837     0CE3  1283               	bcf	3,5	;RP0=0, select bank0
  3838     0CE4  1303               	bcf	3,6	;RP1=0, select bank0
  3839     0CE5  00AC               	movwf	view_log@new+1
  3840     0CE6  0872               	movf	?___awmod,w
  3841     0CE7  00AB               	movwf	view_log@new
  3842     0CE8                     l4961:
  3843                           
  3844                           ;cbb.c: 137:              for (int i = 0; i < 10; i++)
  3845     0CE8  01AE               	clrf	view_log@i
  3846     0CE9  01AF               	clrf	view_log@i+1
  3847     0CEA                     l4967:
  3848                           
  3849                           ;cbb.c: 138:             {;cbb.c: 139:                  addr = new*10 + 0x05;
  3850     0CEA  300A               	movlw	10
  3851     0CEB  00F2               	movwf	___bmul@multiplicand
  3852     0CEC  1283               	bcf	3,5	;RP0=0, select bank0
  3853     0CED  1303               	bcf	3,6	;RP1=0, select bank0
  3854     0CEE  082B               	movf	view_log@new,w
  3855     0CEF  160A  118A  2283  120A  158A  	fcall	___bmul
  3856     0CF4  3E05               	addlw	5
  3857     0CF5  1283               	bcf	3,5	;RP0=0, select bank0
  3858     0CF6  1303               	bcf	3,6	;RP1=0, select bank0
  3859     0CF7  00DA               	movwf	view_log@addr
  3860     0CF8                     l4969:
  3861                           
  3862                           ;cbb.c: 140:                 view_log_arr[i] = eeprom_at24c04_randon_read(addr + i);
  3863     0CF8  082E               	movf	view_log@i,w
  3864     0CF9  3EA0               	addlw	(low (_view_log_arr| 0))& (0+255)
  3865     0CFA  0084               	movwf	4
  3866     0CFB  082E               	movf	view_log@i,w
  3867     0CFC  075A               	addwf	view_log@addr,w
  3868     0CFD  160A  118A  2394  120A  158A  	fcall	_eeprom_at24c04_randon_read
  3869     0D02  1383               	bcf	3,7	;select IRP bank1
  3870     0D03  0080               	movwf	0
  3871     0D04                     l4971:
  3872                           
  3873                           ;cbb.c: 141:             }
  3874     0D04  3001               	movlw	1
  3875     0D05  1283               	bcf	3,5	;RP0=0, select bank0
  3876     0D06  1303               	bcf	3,6	;RP1=0, select bank0
  3877     0D07  07AE               	addwf	view_log@i,f
  3878     0D08  1803               	skipnc
  3879     0D09  0AAF               	incf	view_log@i+1,f
  3880     0D0A  3000               	movlw	0
  3881     0D0B  07AF               	addwf	view_log@i+1,f
  3882     0D0C                     l4973:
  3883     0D0C  082F               	movf	view_log@i+1,w
  3884     0D0D  3A80               	xorlw	128
  3885     0D0E  00FF               	movwf	btemp+1
  3886     0D0F  3080               	movlw	128
  3887     0D10  027F               	subwf	btemp+1,w
  3888     0D11  1D03               	skipz
  3889     0D12  2D15               	goto	u5135
  3890     0D13  300A               	movlw	10
  3891     0D14  022E               	subwf	view_log@i,w
  3892     0D15                     u5135:
  3893     0D15  1C03               	skipc
  3894     0D16  2D18               	goto	u5131
  3895     0D17  2D19               	goto	u5130
  3896     0D18                     u5131:
  3897     0D18  2CEA               	goto	l4967
  3898     0D19                     u5130:
  3899     0D19                     l4975:
  3900                           
  3901                           ;cbb.c: 149:             if(key == 0x3E && control_flag == 0x04)
  3902     0D19  303E               	movlw	62
  3903     0D1A  1283               	bcf	3,5	;RP0=0, select bank0
  3904     0D1B  1303               	bcf	3,6	;RP1=0, select bank0
  3905     0D1C  062D               	xorwf	view_log@key,w
  3906     0D1D  1D03               	btfss	3,2
  3907     0D1E  2D20               	goto	u5141
  3908     0D1F  2D21               	goto	u5140
  3909     0D20                     u5141:
  3910     0D20  2D39               	goto	l4987
  3911     0D21                     u5140:
  3912     0D21                     l4977:
  3913     0D21  3004               	movlw	4
  3914     0D22  0626               	xorwf	view_log@control_flag,w
  3915     0D23  1D03               	btfss	3,2
  3916     0D24  2D26               	goto	u5151
  3917     0D25  2D27               	goto	u5150
  3918     0D26                     u5151:
  3919     0D26  2D39               	goto	l4987
  3920     0D27                     u5150:
  3921     0D27                     l4979:
  3922                           
  3923                           ;cbb.c: 150:             {;cbb.c: 151:                 if(num < 9)
  3924     0D27  3009               	movlw	9
  3925     0D28  0249               	subwf	view_log@num,w
  3926     0D29  1803               	skipnc
  3927     0D2A  2D2C               	goto	u5161
  3928     0D2B  2D2D               	goto	u5160
  3929     0D2C                     u5161:
  3930     0D2C  2D31               	goto	l4983
  3931     0D2D                     u5160:
  3932     0D2D                     l4981:
  3933                           
  3934                           ;cbb.c: 152:                 {;cbb.c: 153:                 num = num+1 ;
  3935     0D2D  0849               	movf	view_log@num,w
  3936     0D2E  3E01               	addlw	1
  3937     0D2F  00C9               	movwf	view_log@num
  3938                           
  3939                           ;cbb.c: 154:                 }
  3940     0D30  2D55               	goto	l4999
  3941     0D31                     l4983:
  3942     0D31  3009               	movlw	9
  3943     0D32  0649               	xorwf	view_log@num,w
  3944     0D33  1D03               	btfss	3,2
  3945     0D34  2D36               	goto	u5171
  3946     0D35  2D37               	goto	u5170
  3947     0D36                     u5171:
  3948     0D36  2D55               	goto	l4999
  3949     0D37                     u5170:
  3950     0D37                     l4985:
  3951                           
  3952                           ;cbb.c: 156:                 {;cbb.c: 157:                     num = 0;
  3953     0D37  01C9               	clrf	view_log@num
  3954     0D38  2D55               	goto	l4999
  3955     0D39                     l4987:
  3956     0D39  303D               	movlw	61
  3957     0D3A  062D               	xorwf	view_log@key,w
  3958     0D3B  1D03               	btfss	3,2
  3959     0D3C  2D3E               	goto	u5181
  3960     0D3D  2D3F               	goto	u5180
  3961     0D3E                     u5181:
  3962     0D3E  2D55               	goto	l4999
  3963     0D3F                     u5180:
  3964     0D3F                     l4989:
  3965     0D3F  3004               	movlw	4
  3966     0D40  0626               	xorwf	view_log@control_flag,w
  3967     0D41  1D03               	btfss	3,2
  3968     0D42  2D44               	goto	u5191
  3969     0D43  2D45               	goto	u5190
  3970     0D44                     u5191:
  3971     0D44  2D55               	goto	l4999
  3972     0D45                     u5190:
  3973     0D45                     l4991:
  3974                           
  3975                           ;cbb.c: 164:             {;cbb.c: 165:                 if(num > 0)
  3976     0D45  0849               	movf	view_log@num,w
  3977     0D46  1903               	btfsc	3,2
  3978     0D47  2D49               	goto	u5201
  3979     0D48  2D4A               	goto	u5200
  3980     0D49                     u5201:
  3981     0D49  2D4E               	goto	l4995
  3982     0D4A                     u5200:
  3983     0D4A                     l4993:
  3984                           
  3985                           ;cbb.c: 166:                 {;cbb.c: 167:                 num = num-1;
  3986     0D4A  0849               	movf	view_log@num,w
  3987     0D4B  3EFF               	addlw	255
  3988     0D4C  00C9               	movwf	view_log@num
  3989                           
  3990                           ;cbb.c: 168:                 }
  3991     0D4D  2D55               	goto	l4999
  3992     0D4E                     l4995:
  3993     0D4E  0849               	movf	view_log@num,w
  3994     0D4F  1D03               	btfss	3,2
  3995     0D50  2D52               	goto	u5211
  3996     0D51  2D53               	goto	u5210
  3997     0D52                     u5211:
  3998     0D52  2D55               	goto	l4999
  3999     0D53                     u5210:
  4000     0D53                     l4997:
  4001                           
  4002                           ;cbb.c: 170:                 {;cbb.c: 171:                     num = 9;
  4003     0D53  3009               	movlw	9
  4004     0D54  00C9               	movwf	view_log@num
  4005     0D55                     l4999:
  4006                           
  4007                           ;cbb.c: 176:     new = (new+num)%10;
  4008     0D55  300A               	movlw	10
  4009     0D56  00F2               	movwf	___awmod@divisor
  4010     0D57  3000               	movlw	0
  4011     0D58  00F3               	movwf	___awmod@divisor+1
  4012     0D59  0849               	movf	view_log@num,w
  4013     0D5A  072B               	addwf	view_log@new,w
  4014     0D5B  00F4               	movwf	___awmod@dividend
  4015     0D5C  082C               	movf	view_log@new+1,w
  4016     0D5D  1803               	skipnc
  4017     0D5E  0A2C               	incf	view_log@new+1,w
  4018     0D5F  00F5               	movwf	___awmod@dividend+1
  4019     0D60  160A  118A  273F  120A  158A  	fcall	___awmod
  4020     0D65  0873               	movf	?___awmod+1,w
  4021     0D66  1283               	bcf	3,5	;RP0=0, select bank0
  4022     0D67  1303               	bcf	3,6	;RP1=0, select bank0
  4023     0D68  00AC               	movwf	view_log@new+1
  4024     0D69  0872               	movf	?___awmod,w
  4025     0D6A  00AB               	movwf	view_log@new
  4026     0D6B                     l5001:
  4027                           
  4028                           ;cbb.c: 177:             if(key == 0x22 && control_flag == 0x04)
  4029     0D6B  3022               	movlw	34
  4030     0D6C  062D               	xorwf	view_log@key,w
  4031     0D6D  1D03               	btfss	3,2
  4032     0D6E  2D70               	goto	u5221
  4033     0D6F  2D71               	goto	u5220
  4034     0D70                     u5221:
  4035     0D70  2D77               	goto	l5007
  4036     0D71                     u5220:
  4037     0D71                     l5003:
  4038     0D71  3004               	movlw	4
  4039     0D72  0626               	xorwf	view_log@control_flag,w
  4040     0D73  1D03               	btfss	3,2
  4041     0D74  2D76               	goto	u5231
  4042     0D75  2D77               	goto	u5230
  4043     0D76                     u5231:
  4044     0D76  2D77               	goto	l5007
  4045     0D77                     u5230:
  4046     0D77                     l5005:
  4047     0D77                     l5007:
  4048                           
  4049                           ;cbb.c: 183:             clcd_print("LOGS",(0x80 + 4));
  4050     0D77  3045               	movlw	low (STR_22| (0+32768))
  4051     0D78  00F6               	movwf	clcd_print@str
  4052     0D79  3091               	movlw	high (STR_22| (0+32768))
  4053     0D7A  00F7               	movwf	clcd_print@str+1
  4054     0D7B  3084               	movlw	132
  4055     0D7C  00F8               	movwf	clcd_print@addr
  4056     0D7D  160A  118A  23BF  120A  158A  	fcall	_clcd_print
  4057     0D82                     l5009:
  4058                           
  4059                           ;cbb.c: 184:             clcd_putch(num + '0', (0xC0 + 0));
  4060     0D82  30C0               	movlw	192
  4061     0D83  00F9               	movwf	clcd_putch@addr
  4062     0D84  1283               	bcf	3,5	;RP0=0, select bank0
  4063     0D85  1303               	bcf	3,6	;RP1=0, select bank0
  4064     0D86  0849               	movf	view_log@num,w
  4065     0D87  3E30               	addlw	48
  4066     0D88  160A  118A  226E  120A  158A  	fcall	_clcd_putch
  4067     0D8D                     l5011:
  4068                           
  4069                           ;cbb.c: 185:             clcd_putch(view_log_arr[0], (0xC0 + 3));
  4070     0D8D  30C3               	movlw	195
  4071     0D8E  00F9               	movwf	clcd_putch@addr
  4072     0D8F  1683               	bsf	3,5	;RP0=1, select bank1
  4073     0D90  1303               	bcf	3,6	;RP1=0, select bank1
  4074     0D91  0820               	movf	_view_log_arr^(0+128),w
  4075     0D92  160A  118A  226E  120A  158A  	fcall	_clcd_putch
  4076     0D97                     l5013:
  4077                           
  4078                           ;cbb.c: 186:             clcd_putch(view_log_arr[1], (0xC0 + 4));
  4079     0D97  30C4               	movlw	196
  4080     0D98  00F9               	movwf	clcd_putch@addr
  4081     0D99  1683               	bsf	3,5	;RP0=1, select bank1
  4082     0D9A  1303               	bcf	3,6	;RP1=0, select bank1
  4083     0D9B  0821               	movf	(_view_log_arr^(0+128)+1),w
  4084     0D9C  160A  118A  226E  120A  158A  	fcall	_clcd_putch
  4085     0DA1                     l5015:
  4086                           
  4087                           ;cbb.c: 187:             clcd_putch(view_log_arr[2], (0xC0 + 5));
  4088     0DA1  30C5               	movlw	197
  4089     0DA2  00F9               	movwf	clcd_putch@addr
  4090     0DA3  1683               	bsf	3,5	;RP0=1, select bank1
  4091     0DA4  1303               	bcf	3,6	;RP1=0, select bank1
  4092     0DA5  0822               	movf	(_view_log_arr^(0+128)+2),w
  4093     0DA6  160A  118A  226E  120A  158A  	fcall	_clcd_putch
  4094     0DAB                     l5017:
  4095                           
  4096                           ;cbb.c: 188:             clcd_putch(view_log_arr[3], (0xC0 + 6));
  4097     0DAB  30C6               	movlw	198
  4098     0DAC  00F9               	movwf	clcd_putch@addr
  4099     0DAD  1683               	bsf	3,5	;RP0=1, select bank1
  4100     0DAE  1303               	bcf	3,6	;RP1=0, select bank1
  4101     0DAF  0823               	movf	(_view_log_arr^(0+128)+3),w
  4102     0DB0  160A  118A  226E  120A  158A  	fcall	_clcd_putch
  4103     0DB5                     l5019:
  4104                           
  4105                           ;cbb.c: 189:             clcd_putch(view_log_arr[4], (0xC0 + 7));
  4106     0DB5  30C7               	movlw	199
  4107     0DB6  00F9               	movwf	clcd_putch@addr
  4108     0DB7  1683               	bsf	3,5	;RP0=1, select bank1
  4109     0DB8  1303               	bcf	3,6	;RP1=0, select bank1
  4110     0DB9  0824               	movf	(_view_log_arr^(0+128)+4),w
  4111     0DBA  160A  118A  226E  120A  158A  	fcall	_clcd_putch
  4112     0DBF                     l5021:
  4113                           
  4114                           ;cbb.c: 190:             clcd_putch(view_log_arr[5], (0xC0 + 8));
  4115     0DBF  30C8               	movlw	200
  4116     0DC0  00F9               	movwf	clcd_putch@addr
  4117     0DC1  1683               	bsf	3,5	;RP0=1, select bank1
  4118     0DC2  1303               	bcf	3,6	;RP1=0, select bank1
  4119     0DC3  0825               	movf	(_view_log_arr^(0+128)+5),w
  4120     0DC4  160A  118A  226E  120A  158A  	fcall	_clcd_putch
  4121     0DC9                     l5023:
  4122                           
  4123                           ;cbb.c: 191:             clcd_putch(view_log_arr[6], (0xC0 + 9));
  4124     0DC9  30C9               	movlw	201
  4125     0DCA  00F9               	movwf	clcd_putch@addr
  4126     0DCB  1683               	bsf	3,5	;RP0=1, select bank1
  4127     0DCC  1303               	bcf	3,6	;RP1=0, select bank1
  4128     0DCD  0826               	movf	(_view_log_arr^(0+128)+6),w
  4129     0DCE  160A  118A  226E  120A  158A  	fcall	_clcd_putch
  4130     0DD3                     l5025:
  4131                           
  4132                           ;cbb.c: 192:             clcd_putch(view_log_arr[7], (0xC0 + 10));
  4133     0DD3  30CA               	movlw	202
  4134     0DD4  00F9               	movwf	clcd_putch@addr
  4135     0DD5  1683               	bsf	3,5	;RP0=1, select bank1
  4136     0DD6  1303               	bcf	3,6	;RP1=0, select bank1
  4137     0DD7  0827               	movf	(_view_log_arr^(0+128)+7),w
  4138     0DD8  160A  118A  226E  120A  158A  	fcall	_clcd_putch
  4139     0DDD                     l5027:
  4140                           
  4141                           ;cbb.c: 193:             clcd_putch(view_log_arr[8], (0xC0 + 11));
  4142     0DDD  30CB               	movlw	203
  4143     0DDE  00F9               	movwf	clcd_putch@addr
  4144     0DDF  1683               	bsf	3,5	;RP0=1, select bank1
  4145     0DE0  1303               	bcf	3,6	;RP1=0, select bank1
  4146     0DE1  0828               	movf	(_view_log_arr^(0+128)+8),w
  4147     0DE2  160A  118A  226E  120A  158A  	fcall	_clcd_putch
  4148     0DE7                     l5029:
  4149                           
  4150                           ;cbb.c: 194:             clcd_putch(view_log_arr[9], (0xC0 + 12));
  4151     0DE7  30CC               	movlw	204
  4152     0DE8  00F9               	movwf	clcd_putch@addr
  4153     0DE9  1683               	bsf	3,5	;RP0=1, select bank1
  4154     0DEA  1303               	bcf	3,6	;RP1=0, select bank1
  4155     0DEB  0829               	movf	(_view_log_arr^(0+128)+9),w
  4156     0DEC  160A  118A  226E  120A  158A  	fcall	_clcd_putch
  4157     0DF1                     l5031:
  4158                           
  4159                           ;cbb.c: 197:     for(unsigned long int i = 0; i < 10000; i++);
  4160     0DF1  3000               	movlw	0
  4161     0DF2  1283               	bcf	3,5	;RP0=0, select bank0
  4162     0DF3  1303               	bcf	3,6	;RP1=0, select bank0
  4163     0DF4  00AA               	movwf	view_log@i_387+3
  4164     0DF5  3000               	movlw	0
  4165     0DF6  00A9               	movwf	view_log@i_387+2
  4166     0DF7  3000               	movlw	0
  4167     0DF8  00A8               	movwf	view_log@i_387+1
  4168     0DF9  3000               	movlw	0
  4169     0DFA  00A7               	movwf	view_log@i_387
  4170     0DFB                     l5037:
  4171     0DFB  3001               	movlw	1
  4172     0DFC  1283               	bcf	3,5	;RP0=0, select bank0
  4173     0DFD  1303               	bcf	3,6	;RP1=0, select bank0
  4174     0DFE  07A7               	addwf	view_log@i_387,f
  4175     0DFF  3000               	movlw	0
  4176     0E00  1803               	skipnc
  4177     0E01  3001               	movlw	1
  4178     0E02  07A8               	addwf	view_log@i_387+1,f
  4179     0E03  3000               	movlw	0
  4180     0E04  1803               	skipnc
  4181     0E05  3001               	movlw	1
  4182     0E06  07A9               	addwf	view_log@i_387+2,f
  4183     0E07  3000               	movlw	0
  4184     0E08  1803               	skipnc
  4185     0E09  3001               	movlw	1
  4186     0E0A  07AA               	addwf	view_log@i_387+3,f
  4187     0E0B                     l5039:
  4188     0E0B  082A               	movf	view_log@i_387+3,w
  4189     0E0C  1D03               	btfss	3,2
  4190     0E0D  2E1D               	goto	u5240
  4191     0E0E  0829               	movf	view_log@i_387+2,w
  4192     0E0F  1D03               	btfss	3,2
  4193     0E10  2E1D               	goto	u5240
  4194     0E11  3027               	movlw	39
  4195     0E12  0228               	subwf	view_log@i_387+1,w
  4196     0E13  1D03               	skipz
  4197     0E14  2E19               	goto	u5243
  4198     0E15  3010               	movlw	16
  4199     0E16  0227               	subwf	view_log@i_387,w
  4200     0E17  1D03               	skipz
  4201     0E18  2E19               	goto	u5243
  4202     0E19                     u5243:
  4203     0E19  1C03               	btfss	3,0
  4204     0E1A  2E1C               	goto	u5241
  4205     0E1B  2E1D               	goto	u5240
  4206     0E1C                     u5241:
  4207     0E1C  2DFB               	goto	l5037
  4208     0E1D                     u5240:
  4209     0E1D                     l5041:
  4210                           
  4211                           ;cbb.c: 198:     clcd_write(0x0C, 0);
  4212     0E1D  01F2               	clrf	clcd_write@mode
  4213     0E1E  300C               	movlw	12
  4214     0E1F  160A  118A  22B6  120A  158A  	fcall	_clcd_write
  4215     0E24                     l389:
  4216     0E24  0008               	return
  4217     0E25                     __end_of_view_log:
  4218                           
  4219                           	psect	text2
  4220     12F7                     __ptext2:	
  4221 ;; *************** function _strcpy *****************
  4222 ;; Defined at:
  4223 ;;		line 8 in file "C:\Program Files\Microchip\xc8\v2.40\pic\sources\c90\common\strcpy.c"
  4224 ;; Parameters:    Size  Location     Type
  4225 ;;  to              1    wreg     PTR unsigned char 
  4226 ;;		 -> main@event(3), 
  4227 ;;  from            2    2[COMMON] PTR const unsigned char 
  4228 ;;		 -> STR_8(3), STR_6(3), STR_5(3), STR_4(3), 
  4229 ;;		 -> STR_3(3), STR_2(3), STR_1(3), 
  4230 ;; Auto vars:     Size  Location     Type
  4231 ;;  to              1    6[COMMON] PTR unsigned char 
  4232 ;;		 -> main@event(3), 
  4233 ;;  cp              1    5[COMMON] PTR unsigned char 
  4234 ;;		 -> main@event(3), 
  4235 ;; Return value:  Size  Location     Type
  4236 ;;                  1    wreg      PTR unsigned char 
  4237 ;; Registers used:
  4238 ;;		wreg, fsr0l, fsr0h, status,2, status,0, btemp+1, pclath
  4239 ;; Tracked objects:
  4240 ;;		On entry : 0/0
  4241 ;;		On exit  : 0/0
  4242 ;;		Unchanged: 0/0
  4243 ;; Data sizes:     COMMON   BANK0   BANK1   BANK3   BANK2
  4244 ;;      Params:         2       0       0       0       0
  4245 ;;      Locals:         2       0       0       0       0
  4246 ;;      Temps:          1       0       0       0       0
  4247 ;;      Totals:         5       0       0       0       0
  4248 ;;Total ram usage:        5 bytes
  4249 ;; Hardware stack levels used: 2
  4250 ;; Hardware stack levels required when called: 1
  4251 ;; This function calls:
  4252 ;;		Nothing
  4253 ;; This function is called by:
  4254 ;;		_main
  4255 ;; This function uses a non-reentrant model
  4256 ;;
  4257                           
  4258     12F7                     _strcpy:	
  4259                           ;psect for function _strcpy
  4260                           
  4261                           
  4262                           ;incstack = 0
  4263                           ; Regs used in _strcpy: [wreg-fsr0h+status,2+status,0+btemp+1+pclath]
  4264                           ;strcpy@to stored from wreg
  4265     12F7  00F6               	movwf	strcpy@to
  4266     12F8                     l4765:
  4267     12F8  0876               	movf	strcpy@to,w
  4268     12F9  00F5               	movwf	strcpy@cp
  4269     12FA  2B05               	goto	l4771
  4270     12FB                     l4767:
  4271     12FB  3001               	movlw	1
  4272     12FC  00F4               	movwf	??_strcpy
  4273     12FD  0874               	movf	??_strcpy,w
  4274     12FE  07F5               	addwf	strcpy@cp,f
  4275     12FF                     l4769:
  4276     12FF  3001               	movlw	1
  4277     1300  07F2               	addwf	strcpy@from,f
  4278     1301  1803               	skipnc
  4279     1302  0AF3               	incf	strcpy@from+1,f
  4280     1303  3000               	movlw	0
  4281     1304  07F3               	addwf	strcpy@from+1,f
  4282     1305                     l4771:
  4283     1305  0873               	movf	strcpy@from+1,w
  4284     1306  1283               	bcf	3,5	;RP0=0, select bank0
  4285     1307  1303               	bcf	3,6	;RP1=0, select bank0
  4286     1308  00FF               	movwf	btemp+1
  4287     1309  0872               	movf	strcpy@from,w
  4288     130A  0084               	movwf	4
  4289     130B  160A  118A  216E  160A  118A  	fcall	stringtab
  4290     1310  00F4               	movwf	??_strcpy
  4291     1311  0875               	movf	strcpy@cp,w
  4292     1312  0084               	movwf	4
  4293     1313  0874               	movf	??_strcpy,w
  4294     1314  1783               	bsf	3,7	;select IRP bank2
  4295     1315  0080               	movwf	0
  4296     1316  0800               	movf	0,w
  4297     1317  1D03               	btfss	3,2
  4298     1318  2B1A               	goto	u4891
  4299     1319  2B1B               	goto	u4890
  4300     131A                     u4891:
  4301     131A  2AFB               	goto	l4767
  4302     131B                     u4890:
  4303     131B                     l1208:
  4304     131B  0008               	return
  4305     131C                     __end_of_strcpy:
  4306                           
  4307                           	psect	text3
  4308     049A                     __ptext3:	
  4309 ;; *************** function _set_time *****************
  4310 ;; Defined at:
  4311 ;;		line 324 in file "cbb.c"
  4312 ;; Parameters:    Size  Location     Type
  4313 ;;  key             1    wreg     unsigned char 
  4314 ;;  control_flag    1    5[BANK0 ] unsigned char 
  4315 ;; Auto vars:     Size  Location     Type
  4316 ;;  key             1   14[BANK0 ] unsigned char 
  4317 ;;  dummy           1   13[BANK0 ] unsigned char 
  4318 ;; Return value:  Size  Location     Type
  4319 ;;                  1    wreg      unsigned char 
  4320 ;; Registers used:
  4321 ;;		wreg, fsr0l, fsr0h, status,2, status,0, btemp+1, pclath, cstack
  4322 ;; Tracked objects:
  4323 ;;		On entry : 0/0
  4324 ;;		On exit  : 0/0
  4325 ;;		Unchanged: 0/0
  4326 ;; Data sizes:     COMMON   BANK0   BANK1   BANK3   BANK2
  4327 ;;      Params:         0       1       0       0       0
  4328 ;;      Locals:         0       2       0       0       0
  4329 ;;      Temps:          0       7       0       0       0
  4330 ;;      Totals:         0      10       0       0       0
  4331 ;;Total ram usage:       10 bytes
  4332 ;; Hardware stack levels used: 1
  4333 ;; Hardware stack levels required when called: 6
  4334 ;; This function calls:
  4335 ;;		___awdiv
  4336 ;;		___awmod
  4337 ;;		___bmul
  4338 ;;		_clcd_print
  4339 ;;		_clcd_putch
  4340 ;;		_clear_screen
  4341 ;;		_get_time
  4342 ;;		_write_ds1307
  4343 ;; This function is called by:
  4344 ;;		_main
  4345 ;; This function uses a non-reentrant model
  4346 ;;
  4347                           
  4348     049A                     _set_time:	
  4349                           ;psect for function _set_time
  4350                           
  4351                           
  4352                           ;incstack = 0
  4353                           ; Regs used in _set_time: [wreg-fsr0h+status,2+status,0+btemp+1+pclath+cstack]
  4354                           ;set_time@key stored from wreg
  4355     049A  1283               	bcf	3,5	;RP0=0, select bank0
  4356     049B  1303               	bcf	3,6	;RP1=0, select bank0
  4357     049C  00AE               	movwf	set_time@key
  4358     049D                     l5195:
  4359                           
  4360                           ;cbb.c: 324: unsigned char set_time(unsigned char key,unsigned char control_flag);cbb.c:
      +                           325: {;cbb.c: 326:     static char flag = 0;;cbb.c: 327:     static char position = 2;;
      +                          cbb.c: 328:     static unsigned char blink = 1,wait = 0;;cbb.c: 329:     static char set
      +                          _time_arr[3];;cbb.c: 330:     static char hour_count1 = 0 ,hour_count2 = 0 ,min_count = 
      +                          0 ,sec_count = 0,temp,temp1;;cbb.c: 331:     static char hour_limit = 0,hour_limit2 = 0;
      +                          ;cbb.c: 332:     char dummy;;cbb.c: 334:     clcd_print("HH:MM:SS",(0x80 + 4));
  4361     049D  301D               	movlw	low (STR_25| (0+32768))
  4362     049E  00F6               	movwf	clcd_print@str
  4363     049F  3091               	movlw	high (STR_25| (0+32768))
  4364     04A0  00F7               	movwf	clcd_print@str+1
  4365     04A1  3084               	movlw	132
  4366     04A2  00F8               	movwf	clcd_print@addr
  4367     04A3  160A  118A  23BF  120A  118A  	fcall	_clcd_print
  4368     04A8                     l5197:
  4369                           
  4370                           ;cbb.c: 335:     if(flag == 0)
  4371     04A8  1283               	bcf	3,5	;RP0=0, select bank0
  4372     04A9  1303               	bcf	3,6	;RP1=0, select bank0
  4373     04AA  0848               	movf	set_time@flag,w
  4374     04AB  1D03               	btfss	3,2
  4375     04AC  2CAE               	goto	u5551
  4376     04AD  2CAF               	goto	u5550
  4377     04AE                     u5551:
  4378     04AE  2CF8               	goto	l5203
  4379     04AF                     u5550:
  4380     04AF                     l5199:
  4381                           
  4382                           ;cbb.c: 336:     {;cbb.c: 338:     get_time();
  4383     04AF  120A  158A  2174  120A  118A  	fcall	_get_time
  4384                           
  4385                           ;cbb.c: 340:     set_time_arr[0] = (time[0] & 0x0F)*10 + (time[1] & 0x0F);
  4386     04B4  300F               	movlw	15
  4387     04B5  1683               	bsf	3,5	;RP0=1, select bank1
  4388     04B6  1303               	bcf	3,6	;RP1=0, select bank1
  4389     04B7  0555               	andwf	(_time^(0+128)+1),w
  4390     04B8  1283               	bcf	3,5	;RP0=0, select bank0
  4391     04B9  1303               	bcf	3,6	;RP1=0, select bank0
  4392     04BA  00A6               	movwf	??_set_time
  4393     04BB  300A               	movlw	10
  4394     04BC  00F2               	movwf	___bmul@multiplicand
  4395     04BD  1683               	bsf	3,5	;RP0=1, select bank1
  4396     04BE  1303               	bcf	3,6	;RP1=0, select bank1
  4397     04BF  0854               	movf	_time^(0+128),w
  4398     04C0  390F               	andlw	15
  4399     04C1  160A  118A  2283  120A  118A  	fcall	___bmul
  4400     04C6  1283               	bcf	3,5	;RP0=0, select bank0
  4401     04C7  1303               	bcf	3,6	;RP1=0, select bank0
  4402     04C8  0726               	addwf	??_set_time,w
  4403     04C9  00B9               	movwf	set_time@set_time_arr
  4404                           
  4405                           ;cbb.c: 341:     set_time_arr[1] = (time[2] & 0x0F)*10 + (time[3] & 0x0F);
  4406     04CA  300F               	movlw	15
  4407     04CB  1683               	bsf	3,5	;RP0=1, select bank1
  4408     04CC  1303               	bcf	3,6	;RP1=0, select bank1
  4409     04CD  0557               	andwf	(_time^(0+128)+3),w
  4410     04CE  1283               	bcf	3,5	;RP0=0, select bank0
  4411     04CF  1303               	bcf	3,6	;RP1=0, select bank0
  4412     04D0  00A6               	movwf	??_set_time
  4413     04D1  300A               	movlw	10
  4414     04D2  00F2               	movwf	___bmul@multiplicand
  4415     04D3  1683               	bsf	3,5	;RP0=1, select bank1
  4416     04D4  1303               	bcf	3,6	;RP1=0, select bank1
  4417     04D5  0856               	movf	(_time^(0+128)+2),w
  4418     04D6  390F               	andlw	15
  4419     04D7  160A  118A  2283  120A  118A  	fcall	___bmul
  4420     04DC  1283               	bcf	3,5	;RP0=0, select bank0
  4421     04DD  1303               	bcf	3,6	;RP1=0, select bank0
  4422     04DE  0726               	addwf	??_set_time,w
  4423     04DF  00BA               	movwf	set_time@set_time_arr+1
  4424                           
  4425                           ;cbb.c: 342:     set_time_arr[2] = (time[4] & 0x0F)*10 + (time[5] & 0x0F);
  4426     04E0  300F               	movlw	15
  4427     04E1  1683               	bsf	3,5	;RP0=1, select bank1
  4428     04E2  1303               	bcf	3,6	;RP1=0, select bank1
  4429     04E3  0559               	andwf	(_time^(0+128)+5),w
  4430     04E4  1283               	bcf	3,5	;RP0=0, select bank0
  4431     04E5  1303               	bcf	3,6	;RP1=0, select bank0
  4432     04E6  00A6               	movwf	??_set_time
  4433     04E7  300A               	movlw	10
  4434     04E8  00F2               	movwf	___bmul@multiplicand
  4435     04E9  1683               	bsf	3,5	;RP0=1, select bank1
  4436     04EA  1303               	bcf	3,6	;RP1=0, select bank1
  4437     04EB  0858               	movf	(_time^(0+128)+4),w
  4438     04EC  390F               	andlw	15
  4439     04ED  160A  118A  2283  120A  118A  	fcall	___bmul
  4440     04F2  1283               	bcf	3,5	;RP0=0, select bank0
  4441     04F3  1303               	bcf	3,6	;RP1=0, select bank0
  4442     04F4  0726               	addwf	??_set_time,w
  4443     04F5  00BB               	movwf	set_time@set_time_arr+2
  4444     04F6                     l5201:
  4445                           
  4446                           ;cbb.c: 345:     flag = 1;
  4447     04F6  01C8               	clrf	set_time@flag
  4448     04F7  0AC8               	incf	set_time@flag,f
  4449     04F8                     l5203:
  4450                           
  4451                           ;cbb.c: 347:     if(position == 3 )
  4452     04F8  3003               	movlw	3
  4453     04F9  0659               	xorwf	set_time@position,w
  4454     04FA  1D03               	btfss	3,2
  4455     04FB  2CFD               	goto	u5561
  4456     04FC  2CFE               	goto	u5560
  4457     04FD                     u5561:
  4458     04FD  2CFF               	goto	l5209
  4459     04FE                     u5560:
  4460     04FE                     l5205:
  4461                           
  4462                           ;cbb.c: 348:     {;cbb.c: 349:         position = 0;
  4463     04FE  01D9               	clrf	set_time@position
  4464     04FF                     l5209:
  4465                           
  4466                           ;cbb.c: 355:     if(key == 0x37 && flag == 1 )
  4467     04FF  3037               	movlw	55
  4468     0500  062E               	xorwf	set_time@key,w
  4469     0501  1D03               	btfss	3,2
  4470     0502  2D04               	goto	u5571
  4471     0503  2D05               	goto	u5570
  4472     0504                     u5571:
  4473     0504  2D13               	goto	l5215
  4474     0505                     u5570:
  4475     0505                     l5211:
  4476     0505  0348               	decf	set_time@flag,w
  4477     0506  1D03               	btfss	3,2
  4478     0507  2D09               	goto	u5581
  4479     0508  2D0A               	goto	u5580
  4480     0509                     u5581:
  4481     0509  2D13               	goto	l5215
  4482     050A                     u5580:
  4483     050A                     l5213:
  4484                           
  4485                           ;cbb.c: 356:     {;cbb.c: 357:         set_time_arr[position]++;
  4486     050A  3001               	movlw	1
  4487     050B  00A6               	movwf	??_set_time
  4488     050C  0859               	movf	set_time@position,w
  4489     050D  3E39               	addlw	(low (set_time@set_time_arr| 0))& (0+255)
  4490     050E  0084               	movwf	4
  4491     050F  0826               	movf	??_set_time,w
  4492     0510  1383               	bcf	3,7	;select IRP bank0
  4493     0511  0780               	addwf	0,f
  4494                           
  4495                           ;cbb.c: 358:     }
  4496     0512  2E15               	goto	l5251
  4497     0513                     l5215:
  4498     0513  303D               	movlw	61
  4499     0514  062E               	xorwf	set_time@key,w
  4500     0515  1D03               	btfss	3,2
  4501     0516  2D18               	goto	u5591
  4502     0517  2D19               	goto	u5590
  4503     0518                     u5591:
  4504     0518  2D29               	goto	l5223
  4505     0519                     u5590:
  4506     0519                     l5217:
  4507     0519  0348               	decf	set_time@flag,w
  4508     051A  1D03               	btfss	3,2
  4509     051B  2D1D               	goto	u5601
  4510     051C  2D1E               	goto	u5600
  4511     051D                     u5601:
  4512     051D  2D29               	goto	l5223
  4513     051E                     u5600:
  4514     051E                     l5219:
  4515     051E  3003               	movlw	3
  4516     051F  0259               	subwf	set_time@position,w
  4517     0520  1803               	skipnc
  4518     0521  2D23               	goto	u5611
  4519     0522  2D24               	goto	u5610
  4520     0523                     u5611:
  4521     0523  2D29               	goto	l5223
  4522     0524                     u5610:
  4523     0524                     l5221:
  4524                           
  4525                           ;cbb.c: 360:     {;cbb.c: 361:         position++;
  4526     0524  3001               	movlw	1
  4527     0525  00A6               	movwf	??_set_time
  4528     0526  0826               	movf	??_set_time,w
  4529     0527  07D9               	addwf	set_time@position,f
  4530                           
  4531                           ;cbb.c: 363:     }
  4532     0528  2E15               	goto	l5251
  4533     0529                     l5223:
  4534     0529  302F               	movlw	47
  4535     052A  062E               	xorwf	set_time@key,w
  4536     052B  1D03               	btfss	3,2
  4537     052C  2D2E               	goto	u5621
  4538     052D  2D2F               	goto	u5620
  4539     052E                     u5621:
  4540     052E  2D41               	goto	l5231
  4541     052F                     u5620:
  4542     052F                     l5225:
  4543     052F  0348               	decf	set_time@flag,w
  4544     0530  1D03               	btfss	3,2
  4545     0531  2D33               	goto	u5631
  4546     0532  2D34               	goto	u5630
  4547     0533                     u5631:
  4548     0533  2D41               	goto	l5231
  4549     0534                     u5630:
  4550     0534                     l5227:
  4551     0534  3003               	movlw	3
  4552     0535  0259               	subwf	set_time@position,w
  4553     0536  1803               	skipnc
  4554     0537  2D39               	goto	u5641
  4555     0538  2D3A               	goto	u5640
  4556     0539                     u5641:
  4557     0539  2D41               	goto	l5231
  4558     053A                     u5640:
  4559     053A                     l5229:
  4560                           
  4561                           ;cbb.c: 365:     {;cbb.c: 366:         set_time_arr[position]--;
  4562     053A  0859               	movf	set_time@position,w
  4563     053B  3E39               	addlw	(low (set_time@set_time_arr| 0))& (0+255)
  4564     053C  0084               	movwf	4
  4565     053D  3001               	movlw	1
  4566     053E  1383               	bcf	3,7	;select IRP bank0
  4567     053F  0280               	subwf	0,f
  4568                           
  4569                           ;cbb.c: 367:     }
  4570     0540  2E15               	goto	l5251
  4571     0541                     l5231:
  4572     0541  303B               	movlw	59
  4573     0542  062E               	xorwf	set_time@key,w
  4574     0543  1D03               	btfss	3,2
  4575     0544  2D46               	goto	u5651
  4576     0545  2D47               	goto	u5650
  4577     0546                     u5651:
  4578     0546  2E15               	goto	l473
  4579     0547                     u5650:
  4580     0547                     l5233:
  4581     0547  0348               	decf	set_time@flag,w
  4582     0548  1D03               	btfss	3,2
  4583     0549  2D4B               	goto	u5661
  4584     054A  2D4C               	goto	u5660
  4585     054B                     u5661:
  4586     054B  2E15               	goto	l473
  4587     054C                     u5660:
  4588     054C                     l5235:
  4589                           
  4590                           ;cbb.c: 369:     {;cbb.c: 370:         dummy = ((set_time_arr[0]/10) << 4 | (set_time_ar
      +                          r[0]%10));
  4591     054C  300A               	movlw	10
  4592     054D  00F2               	movwf	___awmod@divisor
  4593     054E  3000               	movlw	0
  4594     054F  00F3               	movwf	___awmod@divisor+1
  4595     0550  0839               	movf	set_time@set_time_arr,w
  4596     0551  00A6               	movwf	??_set_time
  4597     0552  01A7               	clrf	??_set_time+1
  4598     0553  0826               	movf	??_set_time,w
  4599     0554  00F4               	movwf	___awmod@dividend
  4600     0555  0827               	movf	??_set_time+1,w
  4601     0556  00F5               	movwf	___awmod@dividend+1
  4602     0557  160A  118A  273F  120A  118A  	fcall	___awmod
  4603     055C  0872               	movf	?___awmod,w
  4604     055D  1283               	bcf	3,5	;RP0=0, select bank0
  4605     055E  1303               	bcf	3,6	;RP1=0, select bank0
  4606     055F  00A8               	movwf	??_set_time+2
  4607     0560  0873               	movf	?___awmod+1,w
  4608     0561  00A9               	movwf	??_set_time+3
  4609     0562  300A               	movlw	10
  4610     0563  00F2               	movwf	___awdiv@divisor
  4611     0564  3000               	movlw	0
  4612     0565  00F3               	movwf	___awdiv@divisor+1
  4613     0566  0839               	movf	set_time@set_time_arr,w
  4614     0567  00AA               	movwf	??_set_time+4
  4615     0568  01AB               	clrf	??_set_time+5
  4616     0569  082A               	movf	??_set_time+4,w
  4617     056A  00F4               	movwf	___awdiv@dividend
  4618     056B  082B               	movf	??_set_time+5,w
  4619     056C  00F5               	movwf	___awdiv@dividend+1
  4620     056D  120A  158A  2018  120A  118A  	fcall	___awdiv
  4621     0572  0872               	movf	?___awdiv,w
  4622     0573  1283               	bcf	3,5	;RP0=0, select bank0
  4623     0574  1303               	bcf	3,6	;RP1=0, select bank0
  4624     0575  00AC               	movwf	??_set_time+6
  4625     0576  3003               	movlw	3
  4626     0577                     u5675:
  4627     0577  1003               	clrc
  4628     0578  0DAC               	rlf	??_set_time+6,f
  4629     0579  3EFF               	addlw	-1
  4630     057A  1D03               	skipz
  4631     057B  2D77               	goto	u5675
  4632     057C  1003               	clrc
  4633     057D  0D2C               	rlf	??_set_time+6,w
  4634     057E  0428               	iorwf	??_set_time+2,w
  4635     057F  00AD               	movwf	set_time@dummy
  4636     0580                     l5237:
  4637                           
  4638                           ;cbb.c: 371:         clock_reg[0] = (clock_reg[0] & 0xc0) | dummy;
  4639     0580  083C               	movf	_clock_reg,w
  4640     0581  39C0               	andlw	192
  4641     0582  042D               	iorwf	set_time@dummy,w
  4642     0583  00BC               	movwf	_clock_reg
  4643     0584                     l5239:
  4644                           
  4645                           ;cbb.c: 372:         write_ds1307(0x02,clock_reg[0]);
  4646     0584  083C               	movf	_clock_reg,w
  4647     0585  00F3               	movwf	write_ds1307@data
  4648     0586  3002               	movlw	2
  4649     0587  160A  118A  2298  120A  118A  	fcall	_write_ds1307
  4650     058C                     l5241:
  4651                           
  4652                           ;cbb.c: 374:         dummy = ((set_time_arr[1]/10) << 4 | (set_time_arr[1]%10));
  4653     058C  300A               	movlw	10
  4654     058D  00F2               	movwf	___awmod@divisor
  4655     058E  3000               	movlw	0
  4656     058F  00F3               	movwf	___awmod@divisor+1
  4657     0590  1283               	bcf	3,5	;RP0=0, select bank0
  4658     0591  1303               	bcf	3,6	;RP1=0, select bank0
  4659     0592  083A               	movf	set_time@set_time_arr+1,w
  4660     0593  00A6               	movwf	??_set_time
  4661     0594  01A7               	clrf	??_set_time+1
  4662     0595  0826               	movf	??_set_time,w
  4663     0596  00F4               	movwf	___awmod@dividend
  4664     0597  0827               	movf	??_set_time+1,w
  4665     0598  00F5               	movwf	___awmod@dividend+1
  4666     0599  160A  118A  273F  120A  118A  	fcall	___awmod
  4667     059E  0872               	movf	?___awmod,w
  4668     059F  1283               	bcf	3,5	;RP0=0, select bank0
  4669     05A0  1303               	bcf	3,6	;RP1=0, select bank0
  4670     05A1  00A8               	movwf	??_set_time+2
  4671     05A2  0873               	movf	?___awmod+1,w
  4672     05A3  00A9               	movwf	??_set_time+3
  4673     05A4  300A               	movlw	10
  4674     05A5  00F2               	movwf	___awdiv@divisor
  4675     05A6  3000               	movlw	0
  4676     05A7  00F3               	movwf	___awdiv@divisor+1
  4677     05A8  083A               	movf	set_time@set_time_arr+1,w
  4678     05A9  00AA               	movwf	??_set_time+4
  4679     05AA  01AB               	clrf	??_set_time+5
  4680     05AB  082A               	movf	??_set_time+4,w
  4681     05AC  00F4               	movwf	___awdiv@dividend
  4682     05AD  082B               	movf	??_set_time+5,w
  4683     05AE  00F5               	movwf	___awdiv@dividend+1
  4684     05AF  120A  158A  2018  120A  118A  	fcall	___awdiv
  4685     05B4  0872               	movf	?___awdiv,w
  4686     05B5  1283               	bcf	3,5	;RP0=0, select bank0
  4687     05B6  1303               	bcf	3,6	;RP1=0, select bank0
  4688     05B7  00AC               	movwf	??_set_time+6
  4689     05B8  3003               	movlw	3
  4690     05B9                     u5685:
  4691     05B9  1003               	clrc
  4692     05BA  0DAC               	rlf	??_set_time+6,f
  4693     05BB  3EFF               	addlw	-1
  4694     05BC  1D03               	skipz
  4695     05BD  2DB9               	goto	u5685
  4696     05BE  1003               	clrc
  4697     05BF  0D2C               	rlf	??_set_time+6,w
  4698     05C0  0428               	iorwf	??_set_time+2,w
  4699     05C1  00AD               	movwf	set_time@dummy
  4700     05C2                     l5243:
  4701                           
  4702                           ;cbb.c: 375:         clock_reg[1] = (clock_reg[1] & 0x80) | dummy;
  4703     05C2  083D               	movf	_clock_reg+1,w
  4704     05C3  3980               	andlw	128
  4705     05C4  042D               	iorwf	set_time@dummy,w
  4706     05C5  00BD               	movwf	_clock_reg+1
  4707                           
  4708                           ;cbb.c: 376:         write_ds1307(0x01,clock_reg[1]);
  4709     05C6  083D               	movf	_clock_reg+1,w
  4710     05C7  00F3               	movwf	write_ds1307@data
  4711     05C8  3001               	movlw	1
  4712     05C9  160A  118A  2298  120A  118A  	fcall	_write_ds1307
  4713                           
  4714                           ;cbb.c: 378:         dummy = ((set_time_arr[2]/10) << 4 | (set_time_arr[2]%10));
  4715     05CE  300A               	movlw	10
  4716     05CF  00F2               	movwf	___awmod@divisor
  4717     05D0  3000               	movlw	0
  4718     05D1  00F3               	movwf	___awmod@divisor+1
  4719     05D2  1283               	bcf	3,5	;RP0=0, select bank0
  4720     05D3  1303               	bcf	3,6	;RP1=0, select bank0
  4721     05D4  083B               	movf	set_time@set_time_arr+2,w
  4722     05D5  00A6               	movwf	??_set_time
  4723     05D6  01A7               	clrf	??_set_time+1
  4724     05D7  0826               	movf	??_set_time,w
  4725     05D8  00F4               	movwf	___awmod@dividend
  4726     05D9  0827               	movf	??_set_time+1,w
  4727     05DA  00F5               	movwf	___awmod@dividend+1
  4728     05DB  160A  118A  273F  120A  118A  	fcall	___awmod
  4729     05E0  0872               	movf	?___awmod,w
  4730     05E1  1283               	bcf	3,5	;RP0=0, select bank0
  4731     05E2  1303               	bcf	3,6	;RP1=0, select bank0
  4732     05E3  00A8               	movwf	??_set_time+2
  4733     05E4  0873               	movf	?___awmod+1,w
  4734     05E5  00A9               	movwf	??_set_time+3
  4735     05E6  300A               	movlw	10
  4736     05E7  00F2               	movwf	___awdiv@divisor
  4737     05E8  3000               	movlw	0
  4738     05E9  00F3               	movwf	___awdiv@divisor+1
  4739     05EA  083B               	movf	set_time@set_time_arr+2,w
  4740     05EB  00AA               	movwf	??_set_time+4
  4741     05EC  01AB               	clrf	??_set_time+5
  4742     05ED  082A               	movf	??_set_time+4,w
  4743     05EE  00F4               	movwf	___awdiv@dividend
  4744     05EF  082B               	movf	??_set_time+5,w
  4745     05F0  00F5               	movwf	___awdiv@dividend+1
  4746     05F1  120A  158A  2018  120A  118A  	fcall	___awdiv
  4747     05F6  0872               	movf	?___awdiv,w
  4748     05F7  1283               	bcf	3,5	;RP0=0, select bank0
  4749     05F8  1303               	bcf	3,6	;RP1=0, select bank0
  4750     05F9  00AC               	movwf	??_set_time+6
  4751     05FA  3003               	movlw	3
  4752     05FB                     u5695:
  4753     05FB  1003               	clrc
  4754     05FC  0DAC               	rlf	??_set_time+6,f
  4755     05FD  3EFF               	addlw	-1
  4756     05FE  1D03               	skipz
  4757     05FF  2DFB               	goto	u5695
  4758     0600  1003               	clrc
  4759     0601  0D2C               	rlf	??_set_time+6,w
  4760     0602  0428               	iorwf	??_set_time+2,w
  4761     0603  00AD               	movwf	set_time@dummy
  4762     0604                     l5245:
  4763                           
  4764                           ;cbb.c: 379:         clock_reg[2] = (clock_reg[2] & 0xc0) | dummy;
  4765     0604  083E               	movf	_clock_reg+2,w
  4766     0605  39C0               	andlw	192
  4767     0606  042D               	iorwf	set_time@dummy,w
  4768     0607  00BE               	movwf	_clock_reg+2
  4769     0608                     l5247:
  4770                           
  4771                           ;cbb.c: 380:         write_ds1307(0x00,clock_reg[2]);
  4772     0608  083E               	movf	_clock_reg+2,w
  4773     0609  00F3               	movwf	write_ds1307@data
  4774     060A  3000               	movlw	0
  4775     060B  160A  118A  2298  120A  118A  	fcall	_write_ds1307
  4776     0610                     l5249:
  4777                           
  4778                           ;cbb.c: 382:         flag = 2;
  4779     0610  3002               	movlw	2
  4780     0611  1283               	bcf	3,5	;RP0=0, select bank0
  4781     0612  1303               	bcf	3,6	;RP1=0, select bank0
  4782     0613  00C8               	movwf	set_time@flag
  4783     0614  2E15               	goto	l5251
  4784     0615                     l473:
  4785     0615                     l5251:
  4786                           
  4787                           ;cbb.c: 384:     if(flag == 2)
  4788     0615  3002               	movlw	2
  4789     0616  0648               	xorwf	set_time@flag,w
  4790     0617  1D03               	btfss	3,2
  4791     0618  2E1A               	goto	u5701
  4792     0619  2E1B               	goto	u5700
  4793     061A                     u5701:
  4794     061A  2E22               	goto	l5259
  4795     061B                     u5700:
  4796     061B                     l5253:
  4797                           
  4798                           ;cbb.c: 385:     {;cbb.c: 386:          clear_screen();
  4799     061B  160A  118A  2214  120A  118A  	fcall	_clear_screen
  4800     0620                     l5255:
  4801                           
  4802                           ;cbb.c: 387:         return 1;
  4803     0620  3001               	movlw	1
  4804     0621  2F39               	goto	l478
  4805     0622                     l5259:
  4806                           
  4807                           ;cbb.c: 391:     if(set_time_arr[0] > 23)
  4808     0622  3018               	movlw	24
  4809     0623  0239               	subwf	set_time@set_time_arr,w
  4810     0624  1C03               	skipc
  4811     0625  2E27               	goto	u5711
  4812     0626  2E28               	goto	u5710
  4813     0627                     u5711:
  4814     0627  2E29               	goto	l480
  4815     0628                     u5710:
  4816     0628                     l5261:
  4817                           
  4818                           ;cbb.c: 392:     {;cbb.c: 393:         set_time_arr[0] = 0;
  4819     0628  01B9               	clrf	set_time@set_time_arr
  4820     0629                     l480:	
  4821                           ;cbb.c: 394:     }
  4822                           
  4823                           
  4824                           ;cbb.c: 400:     if(set_time_arr[1] > 59)
  4825     0629  303C               	movlw	60
  4826     062A  023A               	subwf	set_time@set_time_arr+1,w
  4827     062B  1C03               	skipc
  4828     062C  2E2E               	goto	u5721
  4829     062D  2E2F               	goto	u5720
  4830     062E                     u5721:
  4831     062E  2E30               	goto	l483
  4832     062F                     u5720:
  4833     062F                     l5265:
  4834                           
  4835                           ;cbb.c: 401:     {;cbb.c: 402:         set_time_arr[1] = 0;
  4836     062F  01BA               	clrf	set_time@set_time_arr+1
  4837     0630                     l483:	
  4838                           ;cbb.c: 403:     }
  4839                           
  4840                           
  4841                           ;cbb.c: 409:     if(set_time_arr[2] > 59)
  4842     0630  303C               	movlw	60
  4843     0631  023B               	subwf	set_time@set_time_arr+2,w
  4844     0632  1C03               	skipc
  4845     0633  2E35               	goto	u5731
  4846     0634  2E36               	goto	u5730
  4847     0635                     u5731:
  4848     0635  2E37               	goto	l5273
  4849     0636                     u5730:
  4850     0636                     l5269:
  4851                           
  4852                           ;cbb.c: 410:     {;cbb.c: 411:         set_time_arr[2] = 0;
  4853     0636  01BB               	clrf	set_time@set_time_arr+2
  4854     0637                     l5273:	
  4855                           ;cbb.c: 412:     }
  4856                           
  4857                           
  4858                           ;cbb.c: 418:     if(++wait == 10)
  4859     0637  3001               	movlw	1
  4860     0638  00A6               	movwf	??_set_time
  4861     0639  0826               	movf	??_set_time,w
  4862     063A  07C7               	addwf	set_time@wait,f
  4863     063B  300A               	movlw	10
  4864     063C  0647               	xorwf	set_time@wait,w
  4865     063D  1D03               	btfss	3,2
  4866     063E  2E40               	goto	u5741
  4867     063F  2E41               	goto	u5740
  4868     0640                     u5741:
  4869     0640  2F39               	goto	l478
  4870     0641                     u5740:
  4871     0641                     l5275:
  4872                           
  4873                           ;cbb.c: 419:     {;cbb.c: 420:         wait = 0;
  4874     0641  01C7               	clrf	set_time@wait
  4875     0642                     l5277:
  4876                           
  4877                           ;cbb.c: 421:         blink = !blink;
  4878     0642  0858               	movf	set_time@blink,w
  4879     0643  1903               	btfsc	3,2
  4880     0644  2E46               	goto	u5751
  4881     0645  2E48               	goto	u5750
  4882     0646                     u5751:
  4883     0646  3001               	movlw	1
  4884     0647  2E49               	goto	u5760
  4885     0648                     u5750:
  4886     0648  3000               	movlw	0
  4887     0649                     u5760:
  4888     0649  00D8               	movwf	set_time@blink
  4889     064A                     l5279:
  4890                           
  4891                           ;cbb.c: 424:     clcd_putch(set_time_arr[0] / 10 + '0',(0xC0 + 4));
  4892     064A  30C4               	movlw	196
  4893     064B  00F9               	movwf	clcd_putch@addr
  4894     064C  300A               	movlw	10
  4895     064D  00F2               	movwf	___awdiv@divisor
  4896     064E  3000               	movlw	0
  4897     064F  00F3               	movwf	___awdiv@divisor+1
  4898     0650  0839               	movf	set_time@set_time_arr,w
  4899     0651  00A6               	movwf	??_set_time
  4900     0652  01A7               	clrf	??_set_time+1
  4901     0653  0826               	movf	??_set_time,w
  4902     0654  00F4               	movwf	___awdiv@dividend
  4903     0655  0827               	movf	??_set_time+1,w
  4904     0656  00F5               	movwf	___awdiv@dividend+1
  4905     0657  120A  158A  2018  120A  118A  	fcall	___awdiv
  4906     065C  0872               	movf	?___awdiv,w
  4907     065D  3E30               	addlw	48
  4908     065E  160A  118A  226E  120A  118A  	fcall	_clcd_putch
  4909     0663                     l5281:
  4910                           
  4911                           ;cbb.c: 425:     clcd_putch(set_time_arr[0] % 10 + '0',(0xC0 + 5));
  4912     0663  30C5               	movlw	197
  4913     0664  00F9               	movwf	clcd_putch@addr
  4914     0665  300A               	movlw	10
  4915     0666  00F2               	movwf	___awmod@divisor
  4916     0667  3000               	movlw	0
  4917     0668  00F3               	movwf	___awmod@divisor+1
  4918     0669  1283               	bcf	3,5	;RP0=0, select bank0
  4919     066A  1303               	bcf	3,6	;RP1=0, select bank0
  4920     066B  0839               	movf	set_time@set_time_arr,w
  4921     066C  00A6               	movwf	??_set_time
  4922     066D  01A7               	clrf	??_set_time+1
  4923     066E  0826               	movf	??_set_time,w
  4924     066F  00F4               	movwf	___awmod@dividend
  4925     0670  0827               	movf	??_set_time+1,w
  4926     0671  00F5               	movwf	___awmod@dividend+1
  4927     0672  160A  118A  273F  120A  118A  	fcall	___awmod
  4928     0677  0872               	movf	?___awmod,w
  4929     0678  3E30               	addlw	48
  4930     0679  160A  118A  226E  120A  118A  	fcall	_clcd_putch
  4931     067E                     l5283:
  4932                           
  4933                           ;cbb.c: 426:     clcd_putch(':',(0xC0 + 6));
  4934     067E  30C6               	movlw	198
  4935     067F  00F9               	movwf	clcd_putch@addr
  4936     0680  303A               	movlw	58
  4937     0681  160A  118A  226E  120A  118A  	fcall	_clcd_putch
  4938     0686                     l5285:
  4939                           
  4940                           ;cbb.c: 427:     clcd_putch(set_time_arr[1] / 10 + '0',(0xC0 + 7));
  4941     0686  30C7               	movlw	199
  4942     0687  00F9               	movwf	clcd_putch@addr
  4943     0688  300A               	movlw	10
  4944     0689  00F2               	movwf	___awdiv@divisor
  4945     068A  3000               	movlw	0
  4946     068B  00F3               	movwf	___awdiv@divisor+1
  4947     068C  1283               	bcf	3,5	;RP0=0, select bank0
  4948     068D  1303               	bcf	3,6	;RP1=0, select bank0
  4949     068E  083A               	movf	set_time@set_time_arr+1,w
  4950     068F  00A6               	movwf	??_set_time
  4951     0690  01A7               	clrf	??_set_time+1
  4952     0691  0826               	movf	??_set_time,w
  4953     0692  00F4               	movwf	___awdiv@dividend
  4954     0693  0827               	movf	??_set_time+1,w
  4955     0694  00F5               	movwf	___awdiv@dividend+1
  4956     0695  120A  158A  2018  120A  118A  	fcall	___awdiv
  4957     069A  0872               	movf	?___awdiv,w
  4958     069B  3E30               	addlw	48
  4959     069C  160A  118A  226E  120A  118A  	fcall	_clcd_putch
  4960     06A1                     l5287:
  4961                           
  4962                           ;cbb.c: 428:     clcd_putch(set_time_arr[1] % 10 + '0',(0xC0 + 8));
  4963     06A1  30C8               	movlw	200
  4964     06A2  00F9               	movwf	clcd_putch@addr
  4965     06A3  300A               	movlw	10
  4966     06A4  00F2               	movwf	___awmod@divisor
  4967     06A5  3000               	movlw	0
  4968     06A6  00F3               	movwf	___awmod@divisor+1
  4969     06A7  1283               	bcf	3,5	;RP0=0, select bank0
  4970     06A8  1303               	bcf	3,6	;RP1=0, select bank0
  4971     06A9  083A               	movf	set_time@set_time_arr+1,w
  4972     06AA  00A6               	movwf	??_set_time
  4973     06AB  01A7               	clrf	??_set_time+1
  4974     06AC  0826               	movf	??_set_time,w
  4975     06AD  00F4               	movwf	___awmod@dividend
  4976     06AE  0827               	movf	??_set_time+1,w
  4977     06AF  00F5               	movwf	___awmod@dividend+1
  4978     06B0  160A  118A  273F  120A  118A  	fcall	___awmod
  4979     06B5  0872               	movf	?___awmod,w
  4980     06B6  3E30               	addlw	48
  4981     06B7  160A  118A  226E  120A  118A  	fcall	_clcd_putch
  4982     06BC                     l5289:
  4983                           
  4984                           ;cbb.c: 429:     clcd_putch(':',(0xC0 + 9));
  4985     06BC  30C9               	movlw	201
  4986     06BD  00F9               	movwf	clcd_putch@addr
  4987     06BE  303A               	movlw	58
  4988     06BF  160A  118A  226E  120A  118A  	fcall	_clcd_putch
  4989     06C4                     l5291:
  4990                           
  4991                           ;cbb.c: 430:     clcd_putch(set_time_arr[2] / 10 + '0',(0xC0 + 10));
  4992     06C4  30CA               	movlw	202
  4993     06C5  00F9               	movwf	clcd_putch@addr
  4994     06C6  300A               	movlw	10
  4995     06C7  00F2               	movwf	___awdiv@divisor
  4996     06C8  3000               	movlw	0
  4997     06C9  00F3               	movwf	___awdiv@divisor+1
  4998     06CA  1283               	bcf	3,5	;RP0=0, select bank0
  4999     06CB  1303               	bcf	3,6	;RP1=0, select bank0
  5000     06CC  083B               	movf	set_time@set_time_arr+2,w
  5001     06CD  00A6               	movwf	??_set_time
  5002     06CE  01A7               	clrf	??_set_time+1
  5003     06CF  0826               	movf	??_set_time,w
  5004     06D0  00F4               	movwf	___awdiv@dividend
  5005     06D1  0827               	movf	??_set_time+1,w
  5006     06D2  00F5               	movwf	___awdiv@dividend+1
  5007     06D3  120A  158A  2018  120A  118A  	fcall	___awdiv
  5008     06D8  0872               	movf	?___awdiv,w
  5009     06D9  3E30               	addlw	48
  5010     06DA  160A  118A  226E  120A  118A  	fcall	_clcd_putch
  5011     06DF                     l5293:
  5012                           
  5013                           ;cbb.c: 431:     clcd_putch(set_time_arr[2] % 10 + '0',(0xC0 + 11));
  5014     06DF  30CB               	movlw	203
  5015     06E0  00F9               	movwf	clcd_putch@addr
  5016     06E1  300A               	movlw	10
  5017     06E2  00F2               	movwf	___awmod@divisor
  5018     06E3  3000               	movlw	0
  5019     06E4  00F3               	movwf	___awmod@divisor+1
  5020     06E5  1283               	bcf	3,5	;RP0=0, select bank0
  5021     06E6  1303               	bcf	3,6	;RP1=0, select bank0
  5022     06E7  083B               	movf	set_time@set_time_arr+2,w
  5023     06E8  00A6               	movwf	??_set_time
  5024     06E9  01A7               	clrf	??_set_time+1
  5025     06EA  0826               	movf	??_set_time,w
  5026     06EB  00F4               	movwf	___awmod@dividend
  5027     06EC  0827               	movf	??_set_time+1,w
  5028     06ED  00F5               	movwf	___awmod@dividend+1
  5029     06EE  160A  118A  273F  120A  118A  	fcall	___awmod
  5030     06F3  0872               	movf	?___awmod,w
  5031     06F4  3E30               	addlw	48
  5032     06F5  160A  118A  226E  120A  118A  	fcall	_clcd_putch
  5033     06FA                     l5295:
  5034                           
  5035                           ;cbb.c: 433:     if(blink)
  5036     06FA  1283               	bcf	3,5	;RP0=0, select bank0
  5037     06FB  1303               	bcf	3,6	;RP1=0, select bank0
  5038     06FC  0858               	movf	set_time@blink,w
  5039     06FD  1903               	btfsc	3,2
  5040     06FE  2F00               	goto	u5771
  5041     06FF  2F01               	goto	u5770
  5042     0700                     u5771:
  5043     0700  2F39               	goto	l478
  5044     0701                     u5770:
  5045     0701  2F26               	goto	l5307
  5046     0702                     l5299:
  5047                           
  5048                           ;cbb.c: 438:      clcd_print("  ",(0xC0 + 4));
  5049     0702  3031               	movlw	low ((STR_18+14)| (0+32768))
  5050     0703  00F6               	movwf	clcd_print@str
  5051     0704  3090               	movlw	high ((STR_18+14)| (0+32768))
  5052     0705  00F7               	movwf	clcd_print@str+1
  5053     0706  30C4               	movlw	196
  5054     0707  00F8               	movwf	clcd_print@addr
  5055     0708  160A  118A  23BF  120A  118A  	fcall	_clcd_print
  5056                           
  5057                           ;cbb.c: 439:      break;
  5058     070D  2F39               	goto	l478
  5059     070E                     l5301:
  5060                           
  5061                           ;cbb.c: 441:      clcd_print("  ",(0xC0 + 7));
  5062     070E  3031               	movlw	low ((STR_18+14)| (0+32768))
  5063     070F  00F6               	movwf	clcd_print@str
  5064     0710  3090               	movlw	high ((STR_18+14)| (0+32768))
  5065     0711  00F7               	movwf	clcd_print@str+1
  5066     0712  30C7               	movlw	199
  5067     0713  00F8               	movwf	clcd_print@addr
  5068     0714  160A  118A  23BF  120A  118A  	fcall	_clcd_print
  5069                           
  5070                           ;cbb.c: 442:      break;
  5071     0719  2F39               	goto	l478
  5072     071A                     l5303:
  5073                           
  5074                           ;cbb.c: 444:      clcd_print("  ",(0xC0 + 10));
  5075     071A  3031               	movlw	low ((STR_18+14)| (0+32768))
  5076     071B  00F6               	movwf	clcd_print@str
  5077     071C  3090               	movlw	high ((STR_18+14)| (0+32768))
  5078     071D  00F7               	movwf	clcd_print@str+1
  5079     071E  30CA               	movlw	202
  5080     071F  00F8               	movwf	clcd_print@addr
  5081     0720  160A  118A  23BF  120A  118A  	fcall	_clcd_print
  5082                           
  5083                           ;cbb.c: 445:      break;
  5084     0725  2F39               	goto	l478
  5085     0726                     l5307:
  5086     0726  0859               	movf	set_time@position,w
  5087     0727  00A6               	movwf	??_set_time
  5088     0728  01A7               	clrf	??_set_time+1
  5089                           
  5090                           ; Switch on 2 bytes has been partitioned into a top level switch of size 1, and 1 sub-sw
      +                          itches
  5091                           ; Switch size 1, requested type "simple"
  5092                           ; Number of cases is 1, Range of values is 0 to 0
  5093                           ; switch strategies available:
  5094                           ; Name         Instructions Cycles
  5095                           ; simple_byte            4     3 (average)
  5096                           ; direct_byte           11     8 (fixed)
  5097                           ; jumptable            260     6 (fixed)
  5098                           ;	Chosen strategy is simple_byte
  5099     0729  0827               	movf	??_set_time+1,w
  5100     072A  3A00               	xorlw	0	; case 0
  5101     072B  1903               	skipnz
  5102     072C  2F2E               	goto	l5837
  5103     072D  2F39               	goto	l478
  5104     072E                     l5837:
  5105                           
  5106                           ; Switch size 1, requested type "simple"
  5107                           ; Number of cases is 3, Range of values is 0 to 2
  5108                           ; switch strategies available:
  5109                           ; Name         Instructions Cycles
  5110                           ; simple_byte           10     6 (average)
  5111                           ; direct_byte           17     8 (fixed)
  5112                           ; jumptable            260     6 (fixed)
  5113                           ;	Chosen strategy is simple_byte
  5114     072E  0826               	movf	??_set_time,w
  5115     072F  3A00               	xorlw	0	; case 0
  5116     0730  1903               	skipnz
  5117     0731  2F02               	goto	l5299
  5118     0732  3A01               	xorlw	1	; case 1
  5119     0733  1903               	skipnz
  5120     0734  2F0E               	goto	l5301
  5121     0735  3A03               	xorlw	3	; case 2
  5122     0736  1903               	skipnz
  5123     0737  2F1A               	goto	l5303
  5124     0738  2F39               	goto	l478
  5125     0739                     l478:
  5126     0739  0008               	return
  5127     073A                     __end_of_set_time:
  5128                           
  5129                           	psect	text4
  5130     08ED                     __ptext4:	
  5131 ;; *************** function _read_digital_keypad *****************
  5132 ;; Defined at:
  5133 ;;		line 14 in file "digital_keypad.c"
  5134 ;; Parameters:    Size  Location     Type
  5135 ;;  mode            1    wreg     unsigned char 
  5136 ;; Auto vars:     Size  Location     Type
  5137 ;;  mode            1    0[COMMON] unsigned char 
  5138 ;;  key             1    2[COMMON] unsigned char 
  5139 ;; Return value:  Size  Location     Type
  5140 ;;                  1    wreg      unsigned char 
  5141 ;; Registers used:
  5142 ;;		wreg, status,2, status,0, btemp+1
  5143 ;; Tracked objects:
  5144 ;;		On entry : 0/0
  5145 ;;		On exit  : 0/0
  5146 ;;		Unchanged: 0/0
  5147 ;; Data sizes:     COMMON   BANK0   BANK1   BANK3   BANK2
  5148 ;;      Params:         0       0       0       0       0
  5149 ;;      Locals:         1       0       0       0       0
  5150 ;;      Temps:          0       0       0       0       0
  5151 ;;      Totals:         1       0       0       0       0
  5152 ;;Total ram usage:        1 bytes
  5153 ;; Hardware stack levels used: 1
  5154 ;; Hardware stack levels required when called: 1
  5155 ;; This function calls:
  5156 ;;		Nothing
  5157 ;; This function is called by:
  5158 ;;		_main
  5159 ;; This function uses a non-reentrant model
  5160 ;;
  5161                           
  5162     08ED                     _read_digital_keypad:	
  5163                           ;psect for function _read_digital_keypad
  5164                           
  5165     08ED                     l4709:	
  5166                           ;incstack = 0
  5167                           ; Regs used in _read_digital_keypad: [wreg+status,2+status,0+btemp+1]
  5168                           
  5169                           
  5170                           ;digital_keypad.c: 14:  {;digital_keypad.c: 15:   once = 1;;digital_keypad.c: 16:   long
      +                          pressed = 0 ;;digital_keypad.c: 17: ;digital_keypad.c: 18:   pre_key = key;;digital_keyp
      +                          ad.c: 19:  }
  5171     08ED  1283               	bcf	3,5	;RP0=0, select bank0
  5172     08EE  1303               	bcf	3,6	;RP1=0, select bank0
  5173     08EF  0806               	movf	6,w	;volatile
  5174     08F0  393F               	andlw	63
  5175     08F1  00F2               	movwf	read_digital_keypad@key
  5176     08F2                     l4711:
  5177                           
  5178                           ;digital_keypad.c: 20:  else if( key == 0x3F && once )
  5179     08F2  303F               	movlw	63
  5180     08F3  0672               	xorwf	read_digital_keypad@key,w
  5181     08F4  1903               	btfsc	3,2
  5182     08F5  28F7               	goto	u4761
  5183     08F6  28F8               	goto	u4760
  5184     08F7                     u4761:
  5185     08F7  2904               	goto	l4721
  5186     08F8                     u4760:
  5187     08F8                     l4713:
  5188     08F8  087B               	movf	read_digital_keypad@once,w
  5189     08F9  1D03               	btfss	3,2
  5190     08FA  28FC               	goto	u4771
  5191     08FB  28FD               	goto	u4770
  5192     08FC                     u4771:
  5193     08FC  2904               	goto	l4721
  5194     08FD                     u4770:
  5195     08FD                     l4715:
  5196                           
  5197                           ;digital_keypad.c: 21:  {;digital_keypad.c: 22:   once = 0;
  5198     08FD  01FB               	clrf	read_digital_keypad@once
  5199     08FE  0AFB               	incf	read_digital_keypad@once,f
  5200     08FF                     l4717:
  5201                           
  5202                           ;digital_keypad.c: 23:   if ( longpressed < 20 )
  5203     08FF  01D5               	clrf	read_digital_keypad@longpressed
  5204     0900  01D6               	clrf	read_digital_keypad@longpressed+1
  5205     0901                     l4719:
  5206                           
  5207                           ;digital_keypad.c: 25: 
  5208     0901  0872               	movf	read_digital_keypad@key,w
  5209     0902  00FA               	movwf	read_digital_keypad@pre_key
  5210                           
  5211                           ;digital_keypad.c: 26:  }
  5212     0903  2972               	goto	l4761
  5213     0904                     l4721:
  5214     0904  303F               	movlw	63
  5215     0905  0672               	xorwf	read_digital_keypad@key,w
  5216     0906  1D03               	btfss	3,2
  5217     0907  2909               	goto	u4781
  5218     0908  290A               	goto	u4780
  5219     0909                     u4781:
  5220     0909  291F               	goto	l4733
  5221     090A                     u4780:
  5222     090A                     l4723:
  5223     090A  087B               	movf	read_digital_keypad@once,w
  5224     090B  1903               	btfsc	3,2
  5225     090C  290E               	goto	u4791
  5226     090D  290F               	goto	u4790
  5227     090E                     u4791:
  5228     090E  291F               	goto	l4733
  5229     090F                     u4790:
  5230     090F                     l4725:
  5231                           
  5232                           ;digital_keypad.c: 28:     {;digital_keypad.c: 29:   longpressed++;
  5233     090F  01FB               	clrf	read_digital_keypad@once
  5234     0910                     l4727:
  5235                           
  5236                           ;digital_keypad.c: 30: 
  5237     0910  0856               	movf	read_digital_keypad@longpressed+1,w
  5238     0911  3A80               	xorlw	128
  5239     0912  00FF               	movwf	btemp+1
  5240     0913  3080               	movlw	128
  5241     0914  027F               	subwf	btemp+1,w
  5242     0915  1D03               	skipz
  5243     0916  2919               	goto	u4805
  5244     0917  3014               	movlw	20
  5245     0918  0255               	subwf	read_digital_keypad@longpressed,w
  5246     0919                     u4805:
  5247     0919  1803               	skipnc
  5248     091A  291C               	goto	u4801
  5249     091B  291D               	goto	u4800
  5250     091C                     u4801:
  5251     091C  2972               	goto	l4761
  5252     091D                     u4800:
  5253     091D                     l4729:
  5254                           
  5255                           ;digital_keypad.c: 31:     }
  5256     091D  087A               	movf	read_digital_keypad@pre_key,w
  5257     091E  2973               	goto	l285
  5258     091F                     l4733:
  5259     091F  087B               	movf	read_digital_keypad@once,w
  5260     0920  1903               	btfsc	3,2
  5261     0921  2923               	goto	u4811
  5262     0922  2924               	goto	u4810
  5263     0923                     u4811:
  5264     0923  293A               	goto	l4739
  5265     0924                     u4810:
  5266     0924                     l4735:
  5267     0924  0856               	movf	read_digital_keypad@longpressed+1,w
  5268     0925  3A80               	xorlw	128
  5269     0926  00FF               	movwf	btemp+1
  5270     0927  3080               	movlw	128
  5271     0928  027F               	subwf	btemp+1,w
  5272     0929  1D03               	skipz
  5273     092A  292D               	goto	u4825
  5274     092B  3015               	movlw	21
  5275     092C  0255               	subwf	read_digital_keypad@longpressed,w
  5276     092D                     u4825:
  5277     092D  1803               	skipnc
  5278     092E  2930               	goto	u4821
  5279     092F  2931               	goto	u4820
  5280     0930                     u4821:
  5281     0930  293A               	goto	l4739
  5282     0931                     u4820:
  5283     0931                     l4737:
  5284                           
  5285                           ;digital_keypad.c: 35:   return 0x11;;digital_keypad.c: 36:  }
  5286     0931  3001               	movlw	1
  5287     0932  1283               	bcf	3,5	;RP0=0, select bank0
  5288     0933  1303               	bcf	3,6	;RP1=0, select bank0
  5289     0934  07D5               	addwf	read_digital_keypad@longpressed,f
  5290     0935  1803               	skipnc
  5291     0936  0AD6               	incf	read_digital_keypad@longpressed+1,f
  5292     0937  3000               	movlw	0
  5293     0938  07D6               	addwf	read_digital_keypad@longpressed+1,f
  5294                           
  5295                           ;digital_keypad.c: 38:  {
  5296     0939  2972               	goto	l4761
  5297     093A                     l4739:
  5298     093A  087B               	movf	read_digital_keypad@once,w
  5299     093B  1903               	btfsc	3,2
  5300     093C  293E               	goto	u4831
  5301     093D  293F               	goto	u4830
  5302     093E                     u4831:
  5303     093E  2956               	goto	l4751
  5304     093F                     u4830:
  5305     093F                     l4741:
  5306     093F  3015               	movlw	21
  5307     0940  1283               	bcf	3,5	;RP0=0, select bank0
  5308     0941  1303               	bcf	3,6	;RP1=0, select bank0
  5309     0942  0655               	xorwf	read_digital_keypad@longpressed,w
  5310     0943  0456               	iorwf	read_digital_keypad@longpressed+1,w
  5311     0944  1D03               	btfss	3,2
  5312     0945  2947               	goto	u4841
  5313     0946  2948               	goto	u4840
  5314     0947                     u4841:
  5315     0947  2956               	goto	l4751
  5316     0948                     u4840:
  5317     0948                     l4743:
  5318     0948  3037               	movlw	55
  5319     0949  0672               	xorwf	read_digital_keypad@key,w
  5320     094A  1D03               	btfss	3,2
  5321     094B  294D               	goto	u4851
  5322     094C  294E               	goto	u4850
  5323     094D                     u4851:
  5324     094D  2956               	goto	l4751
  5325     094E                     u4850:
  5326     094E                     l4745:
  5327                           
  5328                           ;digital_keypad.c: 40:   return 0x22;;digital_keypad.c: 41:  }
  5329     094E  3001               	movlw	1
  5330     094F  07D5               	addwf	read_digital_keypad@longpressed,f
  5331     0950  1803               	skipnc
  5332     0951  0AD6               	incf	read_digital_keypad@longpressed+1,f
  5333     0952  3000               	movlw	0
  5334     0953  07D6               	addwf	read_digital_keypad@longpressed+1,f
  5335                           
  5336                           ;digital_keypad.c: 42:  return 0x3F;
  5337     0954  3011               	movlw	17
  5338     0955  2973               	goto	l285
  5339     0956                     l4751:
  5340     0956  087B               	movf	read_digital_keypad@once,w
  5341     0957  1903               	btfsc	3,2
  5342     0958  295A               	goto	u4861
  5343     0959  295B               	goto	u4860
  5344     095A                     u4861:
  5345     095A  2972               	goto	l4761
  5346     095B                     u4860:
  5347     095B                     l4753:
  5348     095B  3015               	movlw	21
  5349     095C  1283               	bcf	3,5	;RP0=0, select bank0
  5350     095D  1303               	bcf	3,6	;RP1=0, select bank0
  5351     095E  0655               	xorwf	read_digital_keypad@longpressed,w
  5352     095F  0456               	iorwf	read_digital_keypad@longpressed+1,w
  5353     0960  1D03               	btfss	3,2
  5354     0961  2963               	goto	u4871
  5355     0962  2964               	goto	u4870
  5356     0963                     u4871:
  5357     0963  2972               	goto	l4761
  5358     0964                     u4870:
  5359     0964                     l4755:
  5360     0964  302F               	movlw	47
  5361     0965  0672               	xorwf	read_digital_keypad@key,w
  5362     0966  1D03               	btfss	3,2
  5363     0967  2969               	goto	u4881
  5364     0968  296A               	goto	u4880
  5365     0969                     u4881:
  5366     0969  2972               	goto	l4761
  5367     096A                     u4880:
  5368     096A                     l4757:
  5369     096A  3001               	movlw	1
  5370     096B  07D5               	addwf	read_digital_keypad@longpressed,f
  5371     096C  1803               	skipnc
  5372     096D  0AD6               	incf	read_digital_keypad@longpressed+1,f
  5373     096E  3000               	movlw	0
  5374     096F  07D6               	addwf	read_digital_keypad@longpressed+1,f
  5375     0970  3022               	movlw	34
  5376     0971  2973               	goto	l285
  5377     0972                     l4761:
  5378     0972  303F               	movlw	63
  5379     0973                     l285:
  5380     0973  0008               	return
  5381     0974                     __end_of_read_digital_keypad:
  5382                           
  5383                           	psect	text5
  5384     1236                     __ptext5:	
  5385 ;; *************** function _read_adc *****************
  5386 ;; Defined at:
  5387 ;;		line 12 in file "adc.c"
  5388 ;; Parameters:    Size  Location     Type
  5389 ;;		None
  5390 ;; Auto vars:     Size  Location     Type
  5391 ;;  adc_reg_val     2    4[COMMON] unsigned short 
  5392 ;; Return value:  Size  Location     Type
  5393 ;;                  2    2[COMMON] unsigned short 
  5394 ;; Registers used:
  5395 ;;		wreg
  5396 ;; Tracked objects:
  5397 ;;		On entry : 0/0
  5398 ;;		On exit  : 0/0
  5399 ;;		Unchanged: 0/0
  5400 ;; Data sizes:     COMMON   BANK0   BANK1   BANK3   BANK2
  5401 ;;      Params:         2       0       0       0       0
  5402 ;;      Locals:         2       0       0       0       0
  5403 ;;      Temps:          0       0       0       0       0
  5404 ;;      Totals:         4       0       0       0       0
  5405 ;;Total ram usage:        4 bytes
  5406 ;; Hardware stack levels used: 1
  5407 ;; Hardware stack levels required when called: 1
  5408 ;; This function calls:
  5409 ;;		Nothing
  5410 ;; This function is called by:
  5411 ;;		_main
  5412 ;; This function uses a non-reentrant model
  5413 ;;
  5414                           
  5415     1236                     _read_adc:	
  5416                           ;psect for function _read_adc
  5417                           
  5418     1236                     l4703:	
  5419                           ;incstack = 0
  5420                           ; Regs used in _read_adc: [wreg]
  5421                           
  5422                           
  5423                           ;adc.c: 14:     unsigned short adc_reg_val;;adc.c: 17:     GO = 1;
  5424     1236  1283               	bcf	3,5	;RP0=0, select bank0
  5425     1237  1303               	bcf	3,6	;RP1=0, select bank0
  5426     1238  151F               	bsf	31,2	;volatile
  5427     1239                     l309:	
  5428                           ;adc.c: 20:     while (nDONE);
  5429                           
  5430     1239  191F               	btfsc	31,2	;volatile
  5431     123A  2A3C               	goto	u4751
  5432     123B  2A3D               	goto	u4750
  5433     123C                     u4751:
  5434     123C  2A39               	goto	l309
  5435     123D                     u4750:
  5436     123D                     l4705:
  5437                           
  5438                           ;adc.c: 23:     adc_reg_val = (ADRESH << 8) | ADRESL;
  5439     123D  081E               	movf	30,w	;volatile
  5440     123E  00F5               	movwf	read_adc@adc_reg_val+1
  5441     123F  1683               	bsf	3,5	;RP0=1, select bank1
  5442     1240  1303               	bcf	3,6	;RP1=0, select bank1
  5443     1241  081E               	movf	30,w	;volatile
  5444     1242  00F4               	movwf	read_adc@adc_reg_val
  5445                           
  5446                           ;adc.c: 25:     return adc_reg_val;
  5447     1243  0875               	movf	read_adc@adc_reg_val+1,w
  5448     1244  00F3               	movwf	?_read_adc+1
  5449     1245  0874               	movf	read_adc@adc_reg_val,w
  5450     1246  00F2               	movwf	?_read_adc
  5451     1247                     l312:
  5452     1247  0008               	return
  5453     1248                     __end_of_read_adc:
  5454                           
  5455                           	psect	text6
  5456     073A                     __ptext6:	
  5457 ;; *************** function _login_menu *****************
  5458 ;; Defined at:
  5459 ;;		line 635 in file "cbb.c"
  5460 ;; Parameters:    Size  Location     Type
  5461 ;;  key             1    wreg     unsigned char 
  5462 ;;  reset_flag      1    5[BANK0 ] unsigned char 
  5463 ;; Auto vars:     Size  Location     Type
  5464 ;;  key             1   20[BANK0 ] unsigned char 
  5465 ;;  menu           10   10[BANK0 ] PTR unsigned char [5]
  5466 ;;		 -> STR_41(9), STR_40(11), STR_39(13), STR_38(10), 
  5467 ;;		 -> STR_37(9), 
  5468 ;; Return value:  Size  Location     Type
  5469 ;;                  1    wreg      unsigned char 
  5470 ;; Registers used:
  5471 ;;		wreg, fsr0l, fsr0h, status,2, status,0, btemp+1, pclath, cstack
  5472 ;; Tracked objects:
  5473 ;;		On entry : 0/0
  5474 ;;		On exit  : 0/0
  5475 ;;		Unchanged: 0/0
  5476 ;; Data sizes:     COMMON   BANK0   BANK1   BANK3   BANK2
  5477 ;;      Params:         0       1       0       0       0
  5478 ;;      Locals:         0      11       0       0       0
  5479 ;;      Temps:          0       4       0       0       0
  5480 ;;      Totals:         0      16       0       0       0
  5481 ;;Total ram usage:       16 bytes
  5482 ;; Hardware stack levels used: 1
  5483 ;; Hardware stack levels required when called: 3
  5484 ;; This function calls:
  5485 ;;		_clcd_print
  5486 ;;		_clcd_putch
  5487 ;;		_clear_screen
  5488 ;; This function is called by:
  5489 ;;		_main
  5490 ;; This function uses a non-reentrant model
  5491 ;;
  5492                           
  5493     073A                     _login_menu:	
  5494                           ;psect for function _login_menu
  5495                           
  5496                           
  5497                           ;incstack = 0
  5498                           ; Regs used in _login_menu: [wreg-fsr0h+status,2+status,0+btemp+1+pclath+cstack]
  5499                           ;login_menu@key stored from wreg
  5500     073A  1283               	bcf	3,5	;RP0=0, select bank0
  5501     073B  1303               	bcf	3,6	;RP1=0, select bank0
  5502     073C  00B4               	movwf	login_menu@key
  5503     073D                     l4897:
  5504                           
  5505                           ;cbb.c: 635: unsigned char login_menu(unsigned char key, unsigned char reset_flag);cbb.c
      +                          : 636: {;cbb.c: 638:     char *menu[] = {"View Log","Clear Log","Download Log","Change P
      +                          WD","Set Time"};
  5506     073D  302A               	movlw	login_menu@menu& (0+255)
  5507     073E  0084               	movwf	4
  5508     073F  30B2               	movlw	low login_menu@F1154
  5509     0740  00A6               	movwf	??_login_menu
  5510     0741  0804               	movf	4,w
  5511     0742  00A7               	movwf	??_login_menu+1
  5512     0743  300A               	movlw	10
  5513     0744  00A8               	movwf	??_login_menu+2
  5514     0745                     u5020:
  5515     0745  0826               	movf	??_login_menu,w
  5516     0746  0084               	movwf	4
  5517     0747  1783               	bsf	3,7	;select IRP bank3
  5518     0748  0800               	movf	0,w
  5519     0749  00A9               	movwf	??_login_menu+3
  5520     074A  0AA6               	incf	??_login_menu,f
  5521     074B  0827               	movf	??_login_menu+1,w
  5522     074C  0084               	movwf	4
  5523     074D  1383               	bcf	3,7	;select IRP bank0
  5524     074E  0829               	movf	??_login_menu+3,w
  5525     074F  0080               	movwf	0
  5526     0750  0AA7               	incf	??_login_menu+1,f
  5527     0751  0BA8               	decfsz	??_login_menu+2,f
  5528     0752  2F45               	goto	u5020
  5529     0753                     l4899:
  5530                           
  5531                           ;cbb.c: 639:     static char menu_pos = 0;;cbb.c: 641:     if(reset_flag == 0x50)
  5532     0753  3050               	movlw	80
  5533     0754  0625               	xorwf	login_menu@reset_flag,w
  5534     0755  1D03               	btfss	3,2
  5535     0756  2F58               	goto	u5031
  5536     0757  2F59               	goto	u5030
  5537     0758                     u5031:
  5538     0758  2F61               	goto	l4905
  5539     0759                     u5030:
  5540     0759                     l4901:
  5541                           
  5542                           ;cbb.c: 642:     {;cbb.c: 643:         clear_screen();
  5543     0759  160A  118A  2214  120A  118A  	fcall	_clear_screen
  5544     075E                     l4903:
  5545                           
  5546                           ;cbb.c: 644:         menu_pos = 0;
  5547     075E  1283               	bcf	3,5	;RP0=0, select bank0
  5548     075F  1303               	bcf	3,6	;RP1=0, select bank0
  5549     0760  01C5               	clrf	login_menu@menu_pos
  5550     0761                     l4905:
  5551                           
  5552                           ;cbb.c: 646:     if(key == 0x37 && menu_pos > 0 )
  5553     0761  3037               	movlw	55
  5554     0762  0634               	xorwf	login_menu@key,w
  5555     0763  1D03               	btfss	3,2
  5556     0764  2F66               	goto	u5041
  5557     0765  2F67               	goto	u5040
  5558     0766                     u5041:
  5559     0766  2F74               	goto	l4913
  5560     0767                     u5040:
  5561     0767                     l4907:
  5562     0767  0845               	movf	login_menu@menu_pos,w
  5563     0768  1903               	btfsc	3,2
  5564     0769  2F6B               	goto	u5051
  5565     076A  2F6C               	goto	u5050
  5566     076B                     u5051:
  5567     076B  2F74               	goto	l4913
  5568     076C                     u5050:
  5569     076C                     l4909:
  5570                           
  5571                           ;cbb.c: 647:     {;cbb.c: 648:         menu_pos--;
  5572     076C  3001               	movlw	1
  5573     076D  02C5               	subwf	login_menu@menu_pos,f
  5574     076E                     l4911:
  5575                           
  5576                           ;cbb.c: 649:         clear_screen();
  5577     076E  160A  118A  2214  120A  118A  	fcall	_clear_screen
  5578                           
  5579                           ;cbb.c: 650:     }
  5580     0773  2F85               	goto	l4921
  5581     0774                     l4913:
  5582     0774  302F               	movlw	47
  5583     0775  0634               	xorwf	login_menu@key,w
  5584     0776  1D03               	btfss	3,2
  5585     0777  2F79               	goto	u5061
  5586     0778  2F7A               	goto	u5060
  5587     0779                     u5061:
  5588     0779  2F85               	goto	l4921
  5589     077A                     u5060:
  5590     077A                     l4915:
  5591     077A  3004               	movlw	4
  5592     077B  0245               	subwf	login_menu@menu_pos,w
  5593     077C  1803               	skipnc
  5594     077D  2F7F               	goto	u5071
  5595     077E  2F80               	goto	u5070
  5596     077F                     u5071:
  5597     077F  2F85               	goto	l4921
  5598     0780                     u5070:
  5599     0780                     l4917:
  5600                           
  5601                           ;cbb.c: 653:     {;cbb.c: 654:         menu_pos++;
  5602     0780  3001               	movlw	1
  5603     0781  00A6               	movwf	??_login_menu
  5604     0782  0826               	movf	??_login_menu,w
  5605     0783  07C5               	addwf	login_menu@menu_pos,f
  5606     0784  2F6E               	goto	l4911
  5607     0785                     l4921:
  5608                           
  5609                           ;cbb.c: 658:     if(menu_pos < 4)
  5610     0785  3004               	movlw	4
  5611     0786  1283               	bcf	3,5	;RP0=0, select bank0
  5612     0787  1303               	bcf	3,6	;RP1=0, select bank0
  5613     0788  0245               	subwf	login_menu@menu_pos,w
  5614     0789  1803               	skipnc
  5615     078A  2F8C               	goto	u5081
  5616     078B  2F8D               	goto	u5080
  5617     078C                     u5081:
  5618     078C  2FC1               	goto	l4929
  5619     078D                     u5080:
  5620     078D                     l4923:
  5621                           
  5622                           ;cbb.c: 659:     {;cbb.c: 660:         clcd_putch('*',(0x80 + 0));
  5623     078D  3080               	movlw	128
  5624     078E  00F9               	movwf	clcd_putch@addr
  5625     078F  302A               	movlw	42
  5626     0790  160A  118A  226E  120A  118A  	fcall	_clcd_putch
  5627     0795                     l4925:
  5628                           
  5629                           ;cbb.c: 661:     clcd_print(menu[menu_pos],(0x80 + 2));
  5630     0795  1283               	bcf	3,5	;RP0=0, select bank0
  5631     0796  1303               	bcf	3,6	;RP1=0, select bank0
  5632     0797  0845               	movf	login_menu@menu_pos,w
  5633     0798  00A6               	movwf	??_login_menu
  5634     0799  0726               	addwf	??_login_menu,w
  5635     079A  3E2A               	addlw	(low (login_menu@menu| 0))& (0+255)
  5636     079B  0084               	movwf	4
  5637     079C  1383               	bcf	3,7	;select IRP bank0
  5638     079D  0800               	movf	0,w
  5639     079E  00F6               	movwf	clcd_print@str
  5640     079F  0A84               	incf	4,f
  5641     07A0  0800               	movf	0,w
  5642     07A1  0384               	decf	4,f
  5643     07A2  00F7               	movwf	clcd_print@str+1
  5644     07A3  3082               	movlw	130
  5645     07A4  00F8               	movwf	clcd_print@addr
  5646     07A5  160A  118A  23BF  120A  118A  	fcall	_clcd_print
  5647     07AA                     l4927:
  5648                           
  5649                           ;cbb.c: 662:     clcd_print(menu[menu_pos + 1],(0xC0 + 2));
  5650     07AA  1283               	bcf	3,5	;RP0=0, select bank0
  5651     07AB  1303               	bcf	3,6	;RP1=0, select bank0
  5652     07AC  0845               	movf	login_menu@menu_pos,w
  5653     07AD  00A6               	movwf	??_login_menu
  5654     07AE  0726               	addwf	??_login_menu,w
  5655     07AF  3E02               	addlw	2
  5656     07B0  3E2A               	addlw	(low (login_menu@menu| 0))& (0+255)
  5657     07B1  0084               	movwf	4
  5658     07B2  1383               	bcf	3,7	;select IRP bank0
  5659     07B3  0800               	movf	0,w
  5660     07B4  00F6               	movwf	clcd_print@str
  5661     07B5  0A84               	incf	4,f
  5662     07B6  0800               	movf	0,w
  5663     07B7  0384               	decf	4,f
  5664     07B8  00F7               	movwf	clcd_print@str+1
  5665     07B9  30C2               	movlw	194
  5666     07BA  00F8               	movwf	clcd_print@addr
  5667     07BB  160A  118A  23BF  120A  118A  	fcall	_clcd_print
  5668                           
  5669                           ;cbb.c: 666:     }
  5670     07C0  2FFA               	goto	l4937
  5671     07C1                     l4929:
  5672     07C1  3004               	movlw	4
  5673     07C2  0645               	xorwf	login_menu@menu_pos,w
  5674     07C3  1D03               	btfss	3,2
  5675     07C4  2FC6               	goto	u5091
  5676     07C5  2FC7               	goto	u5090
  5677     07C6                     u5091:
  5678     07C6  2FFA               	goto	l4937
  5679     07C7                     u5090:
  5680     07C7                     l4931:
  5681                           
  5682                           ;cbb.c: 668:     {;cbb.c: 669:         clcd_putch('*',(0xC0 + 0));
  5683     07C7  30C0               	movlw	192
  5684     07C8  00F9               	movwf	clcd_putch@addr
  5685     07C9  302A               	movlw	42
  5686     07CA  160A  118A  226E  120A  118A  	fcall	_clcd_putch
  5687     07CF                     l4933:
  5688                           
  5689                           ;cbb.c: 670:         clcd_print(menu[menu_pos - 1],(0x80 + 2));
  5690     07CF  1283               	bcf	3,5	;RP0=0, select bank0
  5691     07D0  1303               	bcf	3,6	;RP1=0, select bank0
  5692     07D1  0845               	movf	login_menu@menu_pos,w
  5693     07D2  00A6               	movwf	??_login_menu
  5694     07D3  0726               	addwf	??_login_menu,w
  5695     07D4  3EFE               	addlw	254
  5696     07D5  3E2A               	addlw	(low (login_menu@menu| 0))& (0+255)
  5697     07D6  0084               	movwf	4
  5698     07D7  1383               	bcf	3,7	;select IRP bank0
  5699     07D8  0800               	movf	0,w
  5700     07D9  00F6               	movwf	clcd_print@str
  5701     07DA  0A84               	incf	4,f
  5702     07DB  0800               	movf	0,w
  5703     07DC  0384               	decf	4,f
  5704     07DD  00F7               	movwf	clcd_print@str+1
  5705     07DE  3082               	movlw	130
  5706     07DF  00F8               	movwf	clcd_print@addr
  5707     07E0  160A  118A  23BF  120A  118A  	fcall	_clcd_print
  5708     07E5                     l4935:
  5709                           
  5710                           ;cbb.c: 671:     clcd_print(menu[menu_pos ],(0xC0 + 2));
  5711     07E5  1283               	bcf	3,5	;RP0=0, select bank0
  5712     07E6  1303               	bcf	3,6	;RP1=0, select bank0
  5713     07E7  0845               	movf	login_menu@menu_pos,w
  5714     07E8  00A6               	movwf	??_login_menu
  5715     07E9  0726               	addwf	??_login_menu,w
  5716     07EA  3E2A               	addlw	(low (login_menu@menu| 0))& (0+255)
  5717     07EB  0084               	movwf	4
  5718     07EC  1383               	bcf	3,7	;select IRP bank0
  5719     07ED  0800               	movf	0,w
  5720     07EE  00F6               	movwf	clcd_print@str
  5721     07EF  0A84               	incf	4,f
  5722     07F0  0800               	movf	0,w
  5723     07F1  0384               	decf	4,f
  5724     07F2  00F7               	movwf	clcd_print@str+1
  5725     07F3  30C2               	movlw	194
  5726     07F4  00F8               	movwf	clcd_print@addr
  5727     07F5  160A  118A  23BF  120A  118A  	fcall	_clcd_print
  5728     07FA                     l4937:
  5729                           
  5730                           ;cbb.c: 673:     return menu_pos;
  5731     07FA  1283               	bcf	3,5	;RP0=0, select bank0
  5732     07FB  1303               	bcf	3,6	;RP1=0, select bank0
  5733     07FC  0845               	movf	login_menu@menu_pos,w
  5734     07FD                     l559:
  5735     07FD  0008               	return
  5736     07FE                     __end_of_login_menu:
  5737                           
  5738                           	psect	text7
  5739     0B53                     __ptext7:	
  5740 ;; *************** function _login *****************
  5741 ;; Defined at:
  5742 ;;		line 535 in file "cbb.c"
  5743 ;; Parameters:    Size  Location     Type
  5744 ;;  key             1    wreg     unsigned char 
  5745 ;;  reset_flag      1    5[BANK0 ] unsigned char 
  5746 ;; Auto vars:     Size  Location     Type
  5747 ;;  key             1    9[BANK0 ] unsigned char 
  5748 ;;  j               1   10[BANK0 ] unsigned char 
  5749 ;;  count           1    0        unsigned char 
  5750 ;; Return value:  Size  Location     Type
  5751 ;;                  1    wreg      unsigned char 
  5752 ;; Registers used:
  5753 ;;		wreg, fsr0l, fsr0h, status,2, status,0, btemp+1, pclath, cstack
  5754 ;; Tracked objects:
  5755 ;;		On entry : 0/0
  5756 ;;		On exit  : 0/0
  5757 ;;		Unchanged: 0/0
  5758 ;; Data sizes:     COMMON   BANK0   BANK1   BANK3   BANK2
  5759 ;;      Params:         0       1       0       0       0
  5760 ;;      Locals:         0       2       0       0       0
  5761 ;;      Temps:          0       3       0       0       0
  5762 ;;      Totals:         0       6       0       0       0
  5763 ;;Total ram usage:        6 bytes
  5764 ;; Hardware stack levels used: 1
  5765 ;; Hardware stack levels required when called: 5
  5766 ;; This function calls:
  5767 ;;		___awdiv
  5768 ;;		___awmod
  5769 ;;		_clcd_print
  5770 ;;		_clcd_putch
  5771 ;;		_clcd_write
  5772 ;;		_clear_screen
  5773 ;;		_eeprom_at24c04_randon_read
  5774 ;;		_strncmp
  5775 ;; This function is called by:
  5776 ;;		_main
  5777 ;; This function uses a non-reentrant model
  5778 ;;
  5779                           
  5780     0B53                     _login:	
  5781                           ;psect for function _login
  5782                           
  5783                           
  5784                           ;incstack = 0
  5785                           ; Regs used in _login: [wreg-fsr0h+status,2+status,0+btemp+1+pclath+cstack]
  5786                           ;login@key stored from wreg
  5787     0B53  1283               	bcf	3,5	;RP0=0, select bank0
  5788     0B54  1303               	bcf	3,6	;RP1=0, select bank0
  5789     0B55  00A9               	movwf	login@key
  5790     0B56                     l4783:
  5791     0B56                     l4785:
  5792                           
  5793                           ;cbb.c: 541:     if(reset_flag == 0x10)
  5794     0B56  3010               	movlw	16
  5795     0B57  0625               	xorwf	login@reset_flag,w
  5796     0B58  1D03               	btfss	3,2
  5797     0B59  2B5B               	goto	u4911
  5798     0B5A  2B5C               	goto	u4910
  5799     0B5B                     u4911:
  5800     0B5B  2B6B               	goto	l4803
  5801     0B5C                     u4910:
  5802     0B5C                     l4787:
  5803                           
  5804                           ;cbb.c: 542:     {;cbb.c: 543:         attempts_rem = 3;
  5805     0B5C  3003               	movlw	3
  5806     0B5D  00D7               	movwf	login@attempts_rem
  5807     0B5E                     l4789:
  5808                           
  5809                           ;cbb.c: 544:         i=0;
  5810     0B5E  01C6               	clrf	login@i
  5811     0B5F                     l4791:
  5812                           
  5813                           ;cbb.c: 545:         npassword[0] = '\0';
  5814     0B5F  1683               	bsf	3,5	;RP0=1, select bank1
  5815     0B60  1303               	bcf	3,6	;RP1=0, select bank1
  5816     0B61  01DF               	clrf	login@npassword^(0+128)
  5817     0B62                     l4793:
  5818                           
  5819                           ;cbb.c: 546:         npassword[1] = '\0';
  5820     0B62  01E0               	clrf	(login@npassword^(0+128)+1)
  5821     0B63                     l4795:
  5822                           
  5823                           ;cbb.c: 547:         npassword[2] = '\0';
  5824     0B63  01E1               	clrf	(login@npassword^(0+128)+2)
  5825     0B64                     l4797:
  5826                           
  5827                           ;cbb.c: 548:         npassword[3] = '\0';
  5828     0B64  01E2               	clrf	(login@npassword^(0+128)+3)
  5829     0B65                     l4799:
  5830                           
  5831                           ;cbb.c: 551:         key = 0xFF;
  5832     0B65  30FF               	movlw	255
  5833     0B66  1283               	bcf	3,5	;RP0=0, select bank0
  5834     0B67  1303               	bcf	3,6	;RP1=0, select bank0
  5835     0B68  00A9               	movwf	login@key
  5836     0B69                     l4801:
  5837                           
  5838                           ;cbb.c: 552:         return_time = 5;
  5839     0B69  3005               	movlw	5
  5840     0B6A  00DC               	movwf	_return_time
  5841     0B6B                     l4803:
  5842                           
  5843                           ;cbb.c: 555:     if(key == 0x37 && i < 4)
  5844     0B6B  3037               	movlw	55
  5845     0B6C  0629               	xorwf	login@key,w
  5846     0B6D  1D03               	btfss	3,2
  5847     0B6E  2B70               	goto	u4921
  5848     0B6F  2B71               	goto	u4920
  5849     0B70                     u4921:
  5850     0B70  2B8F               	goto	l4815
  5851     0B71                     u4920:
  5852     0B71                     l4805:
  5853     0B71  3004               	movlw	4
  5854     0B72  0246               	subwf	login@i,w
  5855     0B73  1803               	skipnc
  5856     0B74  2B76               	goto	u4931
  5857     0B75  2B77               	goto	u4930
  5858     0B76                     u4931:
  5859     0B76  2B8F               	goto	l4815
  5860     0B77                     u4930:
  5861     0B77                     l4807:
  5862                           
  5863                           ;cbb.c: 556:     {;cbb.c: 557:         npassword[i] = '4';
  5864     0B77  0846               	movf	login@i,w
  5865     0B78  3EDF               	addlw	(low (login@npassword| 0))& (0+255)
  5866     0B79  0084               	movwf	4
  5867     0B7A  3034               	movlw	52
  5868     0B7B  1383               	bcf	3,7	;select IRP bank1
  5869     0B7C  0080               	movwf	0
  5870     0B7D                     l4809:
  5871                           
  5872                           ;cbb.c: 558:         clcd_putch('*',(0xC0 + 6+i));
  5873     0B7D  0846               	movf	login@i,w
  5874     0B7E  3EC6               	addlw	198
  5875     0B7F  00F9               	movwf	clcd_putch@addr
  5876     0B80  302A               	movlw	42
  5877     0B81  160A  118A  226E  120A  158A  	fcall	_clcd_putch
  5878     0B86                     l4811:
  5879                           
  5880                           ;cbb.c: 560:         i++;
  5881     0B86  3001               	movlw	1
  5882     0B87  1283               	bcf	3,5	;RP0=0, select bank0
  5883     0B88  1303               	bcf	3,6	;RP1=0, select bank0
  5884     0B89  00A6               	movwf	??_login
  5885     0B8A  0826               	movf	??_login,w
  5886     0B8B  07C6               	addwf	login@i,f
  5887     0B8C                     l4813:
  5888                           
  5889                           ;cbb.c: 561:         return_time = 5;
  5890     0B8C  3005               	movlw	5
  5891     0B8D  00DC               	movwf	_return_time
  5892                           
  5893                           ;cbb.c: 562:     }
  5894     0B8E  2BAB               	goto	l4827
  5895     0B8F                     l4815:
  5896     0B8F  302F               	movlw	47
  5897     0B90  0629               	xorwf	login@key,w
  5898     0B91  1D03               	btfss	3,2
  5899     0B92  2B94               	goto	u4941
  5900     0B93  2B95               	goto	u4940
  5901     0B94                     u4941:
  5902     0B94  2BAB               	goto	l4827
  5903     0B95                     u4940:
  5904     0B95                     l4817:
  5905     0B95  3004               	movlw	4
  5906     0B96  0246               	subwf	login@i,w
  5907     0B97  1803               	skipnc
  5908     0B98  2B9A               	goto	u4951
  5909     0B99  2B9B               	goto	u4950
  5910     0B9A                     u4951:
  5911     0B9A  2BAB               	goto	l4827
  5912     0B9B                     u4950:
  5913     0B9B                     l4819:
  5914                           
  5915                           ;cbb.c: 564:     {;cbb.c: 565:         npassword[i] = '5';
  5916     0B9B  0846               	movf	login@i,w
  5917     0B9C  3EDF               	addlw	(low (login@npassword| 0))& (0+255)
  5918     0B9D  0084               	movwf	4
  5919     0B9E  3035               	movlw	53
  5920     0B9F  1383               	bcf	3,7	;select IRP bank1
  5921     0BA0  0080               	movwf	0
  5922     0BA1                     l4821:
  5923                           
  5924                           ;cbb.c: 566:         clcd_putch('*',(0xC0 + 6+i));
  5925     0BA1  0846               	movf	login@i,w
  5926     0BA2  3EC6               	addlw	198
  5927     0BA3  00F9               	movwf	clcd_putch@addr
  5928     0BA4  302A               	movlw	42
  5929     0BA5  160A  118A  226E  120A  158A  	fcall	_clcd_putch
  5930     0BAA  2B86               	goto	l4811
  5931     0BAB                     l4827:
  5932                           
  5933                           ;cbb.c: 572:     if(i == 4)
  5934     0BAB  3004               	movlw	4
  5935     0BAC  0646               	xorwf	login@i,w
  5936     0BAD  1D03               	btfss	3,2
  5937     0BAE  2BB0               	goto	u4961
  5938     0BAF  2BB1               	goto	u4960
  5939     0BB0                     u4961:
  5940     0BB0  2CAB               	goto	l4891
  5941     0BB1                     u4960:
  5942     0BB1                     l4829:
  5943                           
  5944                           ;cbb.c: 573:     {;cbb.c: 574:         for(char j=0;j<4;j++)
  5945     0BB1  01AA               	clrf	login@j
  5946     0BB2                     l4835:
  5947                           
  5948                           ;cbb.c: 575:         {;cbb.c: 576:             spassword[j] = eeprom_at24c04_randon_read
      +                          (j);
  5949     0BB2  082A               	movf	login@j,w
  5950     0BB3  3EDB               	addlw	(low (login@spassword| 0))& (0+255)
  5951     0BB4  0084               	movwf	4
  5952     0BB5  082A               	movf	login@j,w
  5953     0BB6  160A  118A  2394  120A  158A  	fcall	_eeprom_at24c04_randon_read
  5954     0BBB  1383               	bcf	3,7	;select IRP bank1
  5955     0BBC  0080               	movwf	0
  5956     0BBD                     l4837:
  5957                           
  5958                           ;cbb.c: 577:         }
  5959     0BBD  3001               	movlw	1
  5960     0BBE  1283               	bcf	3,5	;RP0=0, select bank0
  5961     0BBF  1303               	bcf	3,6	;RP1=0, select bank0
  5962     0BC0  00A6               	movwf	??_login
  5963     0BC1  0826               	movf	??_login,w
  5964     0BC2  07AA               	addwf	login@j,f
  5965     0BC3                     l4839:
  5966     0BC3  3004               	movlw	4
  5967     0BC4  022A               	subwf	login@j,w
  5968     0BC5  1C03               	skipc
  5969     0BC6  2BC8               	goto	u4971
  5970     0BC7  2BC9               	goto	u4970
  5971     0BC8                     u4971:
  5972     0BC8  2BB2               	goto	l4835
  5973     0BC9                     u4970:
  5974     0BC9                     l4841:
  5975                           
  5976                           ;cbb.c: 579:         if(strncmp(npassword,spassword,4) == 0)
  5977     0BC9  30DB               	movlw	(low (login@spassword| 0))& (0+255)
  5978     0BCA  00F2               	movwf	strncmp@s2
  5979     0BCB  3004               	movlw	4
  5980     0BCC  00F3               	movwf	strncmp@len
  5981     0BCD  3000               	movlw	0
  5982     0BCE  00F4               	movwf	strncmp@len+1
  5983     0BCF  30DF               	movlw	(low (login@npassword| 0))& (0+255)
  5984     0BD0  160A  118A  24EC  120A  158A  	fcall	_strncmp
  5985     0BD5  0872               	movf	?_strncmp,w
  5986     0BD6  0473               	iorwf	?_strncmp+1,w
  5987     0BD7  1D03               	btfss	3,2
  5988     0BD8  2BDA               	goto	u4981
  5989     0BD9  2BDB               	goto	u4980
  5990     0BDA                     u4981:
  5991     0BDA  2BDD               	goto	l4851
  5992     0BDB                     u4980:
  5993     0BDB                     l4843:
  5994                           
  5995                           ;cbb.c: 580:         {;cbb.c: 581:             return 0x40;
  5996     0BDB  3040               	movlw	64
  5997     0BDC  2CB3               	goto	l535
  5998     0BDD                     l4851:
  5999                           
  6000                           ;cbb.c: 586:         {;cbb.c: 587:             attempts_rem--;
  6001     0BDD  3001               	movlw	1
  6002     0BDE  1283               	bcf	3,5	;RP0=0, select bank0
  6003     0BDF  1303               	bcf	3,6	;RP1=0, select bank0
  6004     0BE0  02D7               	subwf	login@attempts_rem,f
  6005                           
  6006                           ;cbb.c: 588:            if(attempts_rem == 0)
  6007     0BE1  0857               	movf	login@attempts_rem,w
  6008     0BE2  1D03               	btfss	3,2
  6009     0BE3  2BE5               	goto	u4991
  6010     0BE4  2BE6               	goto	u4990
  6011     0BE5                     u4991:
  6012     0BE5  2C4D               	goto	l4869
  6013     0BE6                     u4990:
  6014     0BE6                     l4853:
  6015                           
  6016                           ;cbb.c: 589:            {;cbb.c: 590:               sec = 60;
  6017     0BE6  303C               	movlw	60
  6018     0BE7  00CB               	movwf	_sec
  6019     0BE8                     l4855:
  6020                           
  6021                           ;cbb.c: 591:               clear_screen();
  6022     0BE8  160A  118A  2214  120A  158A  	fcall	_clear_screen
  6023     0BED                     l4857:
  6024                           
  6025                           ;cbb.c: 592:               clcd_print("YOU ARE BLOCKED",(0x80 + 0));
  6026     0BED  3045               	movlw	low (STR_31| (0+32768))
  6027     0BEE  00F6               	movwf	clcd_print@str
  6028     0BEF  3090               	movlw	high (STR_31| (0+32768))
  6029     0BF0  00F7               	movwf	clcd_print@str+1
  6030     0BF1  3080               	movlw	128
  6031     0BF2  00F8               	movwf	clcd_print@addr
  6032     0BF3  160A  118A  23BF  120A  158A  	fcall	_clcd_print
  6033     0BF8                     l4859:
  6034                           
  6035                           ;cbb.c: 593:               clcd_print("WAIT FOR ",((0xC0 + 0)));
  6036     0BF8  30FF               	movlw	low (STR_32| (0+32768))
  6037     0BF9  00F6               	movwf	clcd_print@str
  6038     0BFA  3090               	movlw	high (STR_32| (0+32768))
  6039     0BFB  00F7               	movwf	clcd_print@str+1
  6040     0BFC  30C0               	movlw	192
  6041     0BFD  00F8               	movwf	clcd_print@addr
  6042     0BFE  160A  118A  23BF  120A  158A  	fcall	_clcd_print
  6043     0C03                     l4861:
  6044                           
  6045                           ;cbb.c: 594:               clcd_print("SEC",(0xC0 + 12));
  6046     0C03  304F               	movlw	low (STR_33| (0+32768))
  6047     0C04  00F6               	movwf	clcd_print@str
  6048     0C05  3091               	movlw	high (STR_33| (0+32768))
  6049     0C06  00F7               	movwf	clcd_print@str+1
  6050     0C07  30CC               	movlw	204
  6051     0C08  00F8               	movwf	clcd_print@addr
  6052     0C09  160A  118A  23BF  120A  158A  	fcall	_clcd_print
  6053                           
  6054                           ;cbb.c: 596:             while(sec)
  6055     0C0E  2C43               	goto	l4865
  6056     0C0F                     l4863:
  6057                           
  6058                           ;cbb.c: 597:             {;cbb.c: 598:                 clcd_putch(sec/10 + '0',(0xC0 + 9
      +                          ));
  6059     0C0F  30C9               	movlw	201
  6060     0C10  00F9               	movwf	clcd_putch@addr
  6061     0C11  300A               	movlw	10
  6062     0C12  00F2               	movwf	___awdiv@divisor
  6063     0C13  3000               	movlw	0
  6064     0C14  00F3               	movwf	___awdiv@divisor+1
  6065     0C15  084B               	movf	_sec,w
  6066     0C16  00A6               	movwf	??_login
  6067     0C17  01A7               	clrf	??_login+1
  6068     0C18  0826               	movf	??_login,w
  6069     0C19  00F4               	movwf	___awdiv@dividend
  6070     0C1A  0827               	movf	??_login+1,w
  6071     0C1B  00F5               	movwf	___awdiv@dividend+1
  6072     0C1C  120A  158A  2018  120A  158A  	fcall	___awdiv
  6073     0C21  0872               	movf	?___awdiv,w
  6074     0C22  3E30               	addlw	48
  6075     0C23  160A  118A  226E  120A  158A  	fcall	_clcd_putch
  6076                           
  6077                           ;cbb.c: 599:                 clcd_putch(sec%10 + '0',(0xC0 + 10));
  6078     0C28  30CA               	movlw	202
  6079     0C29  00F9               	movwf	clcd_putch@addr
  6080     0C2A  300A               	movlw	10
  6081     0C2B  00F2               	movwf	___awmod@divisor
  6082     0C2C  3000               	movlw	0
  6083     0C2D  00F3               	movwf	___awmod@divisor+1
  6084     0C2E  1283               	bcf	3,5	;RP0=0, select bank0
  6085     0C2F  1303               	bcf	3,6	;RP1=0, select bank0
  6086     0C30  084B               	movf	_sec,w
  6087     0C31  00A6               	movwf	??_login
  6088     0C32  01A7               	clrf	??_login+1
  6089     0C33  0826               	movf	??_login,w
  6090     0C34  00F4               	movwf	___awmod@dividend
  6091     0C35  0827               	movf	??_login+1,w
  6092     0C36  00F5               	movwf	___awmod@dividend+1
  6093     0C37  160A  118A  273F  120A  158A  	fcall	___awmod
  6094     0C3C  0872               	movf	?___awmod,w
  6095     0C3D  3E30               	addlw	48
  6096     0C3E  160A  118A  226E  120A  158A  	fcall	_clcd_putch
  6097     0C43                     l4865:
  6098                           
  6099                           ;cbb.c: 596:             while(sec)
  6100     0C43  1283               	bcf	3,5	;RP0=0, select bank0
  6101     0C44  1303               	bcf	3,6	;RP1=0, select bank0
  6102     0C45  084B               	movf	_sec,w
  6103     0C46  1D03               	btfss	3,2
  6104     0C47  2C49               	goto	u5001
  6105     0C48  2C4A               	goto	u5000
  6106     0C49                     u5001:
  6107     0C49  2C0F               	goto	l4863
  6108     0C4A                     u5000:
  6109     0C4A                     l4867:
  6110                           
  6111                           ;cbb.c: 601:             attempts_rem = 3;
  6112     0C4A  3003               	movlw	3
  6113     0C4B  00D7               	movwf	login@attempts_rem
  6114                           
  6115                           ;cbb.c: 603:            }
  6116     0C4C  2CAB               	goto	l4891
  6117     0C4D                     l4869:
  6118                           
  6119                           ;cbb.c: 605:            {;cbb.c: 607:            clear_screen();
  6120     0C4D  160A  118A  2214  120A  158A  	fcall	_clear_screen
  6121     0C52                     l4871:
  6122                           
  6123                           ;cbb.c: 609:             clcd_print("Wrong Password",(0x80 + 0));
  6124     0C52  30A3               	movlw	low (STR_34| (0+32768))
  6125     0C53  00F6               	movwf	clcd_print@str
  6126     0C54  3090               	movlw	high (STR_34| (0+32768))
  6127     0C55  00F7               	movwf	clcd_print@str+1
  6128     0C56  3080               	movlw	128
  6129     0C57  00F8               	movwf	clcd_print@addr
  6130     0C58  160A  118A  23BF  120A  158A  	fcall	_clcd_print
  6131     0C5D                     l4873:
  6132                           
  6133                           ;cbb.c: 610:             clcd_putch(attempts_rem + '0',(0xC0 + 0));
  6134     0C5D  30C0               	movlw	192
  6135     0C5E  00F9               	movwf	clcd_putch@addr
  6136     0C5F  1283               	bcf	3,5	;RP0=0, select bank0
  6137     0C60  1303               	bcf	3,6	;RP1=0, select bank0
  6138     0C61  0857               	movf	login@attempts_rem,w
  6139     0C62  3E30               	addlw	48
  6140     0C63  160A  118A  226E  120A  158A  	fcall	_clcd_putch
  6141                           
  6142                           ;cbb.c: 611:             clcd_print("Attempt Remain",(0xC0 + 2));
  6143     0C68  30B2               	movlw	low (STR_35| (0+32768))
  6144     0C69  00F6               	movwf	clcd_print@str
  6145     0C6A  3090               	movlw	high (STR_35| (0+32768))
  6146     0C6B  00F7               	movwf	clcd_print@str+1
  6147     0C6C  30C2               	movlw	194
  6148     0C6D  00F8               	movwf	clcd_print@addr
  6149     0C6E  160A  118A  23BF  120A  158A  	fcall	_clcd_print
  6150     0C73                     l4875:
  6151                           
  6152                           ;cbb.c: 612:             _delay((unsigned long)((2000)*(20000000/4000.0)));
  6153     0C73  3033               	movlw	51
  6154     0C74  1283               	bcf	3,5	;RP0=0, select bank0
  6155     0C75  1303               	bcf	3,6	;RP1=0, select bank0
  6156     0C76  00A8               	movwf	??_login+2
  6157     0C77  30BB               	movlw	187
  6158     0C78  00A7               	movwf	??_login+1
  6159     0C79  30DF               	movlw	223
  6160     0C7A  00A6               	movwf	??_login
  6161     0C7B                     u6307:
  6162     0C7B  0BA6               	decfsz	??_login,f
  6163     0C7C  2C7B               	goto	u6307
  6164     0C7D  0BA7               	decfsz	??_login+1,f
  6165     0C7E  2C7B               	goto	u6307
  6166     0C7F  0BA8               	decfsz	??_login+2,f
  6167     0C80  2C7B               	goto	u6307
  6168     0C81                     l4877:
  6169                           
  6170                           ;cbb.c: 614:             clear_screen();
  6171     0C81  160A  118A  2214  120A  158A  	fcall	_clear_screen
  6172     0C86                     l4879:
  6173                           
  6174                           ;cbb.c: 615:             clcd_print("ENTER PASSWORD",(0x80 + 1));
  6175     0C86  3076               	movlw	low ((STR_9+1)| (0+32768))
  6176     0C87  00F6               	movwf	clcd_print@str
  6177     0C88  3090               	movlw	high ((STR_9+1)| (0+32768))
  6178     0C89  00F7               	movwf	clcd_print@str+1
  6179     0C8A  3081               	movlw	129
  6180     0C8B  00F8               	movwf	clcd_print@addr
  6181     0C8C  160A  118A  23BF  120A  158A  	fcall	_clcd_print
  6182     0C91                     l4881:
  6183                           
  6184                           ;cbb.c: 616:             i=0;
  6185     0C91  1283               	bcf	3,5	;RP0=0, select bank0
  6186     0C92  1303               	bcf	3,6	;RP1=0, select bank0
  6187     0C93  01C6               	clrf	login@i
  6188     0C94                     l4883:
  6189                           
  6190                           ;cbb.c: 617:             return_time = 5;
  6191     0C94  3005               	movlw	5
  6192     0C95  00DC               	movwf	_return_time
  6193     0C96                     l4885:
  6194                           
  6195                           ;cbb.c: 618:             clcd_write(0xC6,0);
  6196     0C96  01F2               	clrf	clcd_write@mode
  6197     0C97  30C6               	movlw	198
  6198     0C98  160A  118A  22B6  120A  158A  	fcall	_clcd_write
  6199     0C9D                     l4887:
  6200                           
  6201                           ;cbb.c: 619:             clcd_write(0x0F,0);
  6202     0C9D  01F2               	clrf	clcd_write@mode
  6203     0C9E  300F               	movlw	15
  6204     0C9F  160A  118A  22B6  120A  158A  	fcall	_clcd_write
  6205     0CA4                     l4889:
  6206                           
  6207                           ;cbb.c: 620:             _delay((unsigned long)((100)*(20000000/4000000.0)));
  6208     0CA4  30A5               	movlw	165
  6209     0CA5  1283               	bcf	3,5	;RP0=0, select bank0
  6210     0CA6  1303               	bcf	3,6	;RP1=0, select bank0
  6211     0CA7  00A6               	movwf	??_login
  6212     0CA8                     u6317:
  6213     0CA8  0BA6               	decfsz	??_login,f
  6214     0CA9  2CA8               	goto	u6317
  6215     0CAA  2CAB               	nop2
  6216     0CAB                     l4891:
  6217                           
  6218                           ;cbb.c: 626:     if(return_time == 0)
  6219     0CAB  1283               	bcf	3,5	;RP0=0, select bank0
  6220     0CAC  1303               	bcf	3,6	;RP1=0, select bank0
  6221     0CAD  085C               	movf	_return_time,w
  6222     0CAE  1D03               	btfss	3,2
  6223     0CAF  2CB1               	goto	u5011
  6224     0CB0  2CB2               	goto	u5010
  6225     0CB1                     u5011:
  6226     0CB1  2CB3               	goto	l535
  6227     0CB2                     u5010:
  6228     0CB2                     l4893:
  6229                           
  6230                           ;cbb.c: 627:     {;cbb.c: 628:         return 0x30;
  6231     0CB2  3030               	movlw	48
  6232     0CB3                     l535:
  6233     0CB3  0008               	return
  6234     0CB4                     __end_of_login:
  6235                           
  6236                           	psect	text8
  6237     16E7                     __ptext8:	
  6238 ;; *************** function _log_car_event *****************
  6239 ;; Defined at:
  6240 ;;		line 515 in file "cbb.c"
  6241 ;; Parameters:    Size  Location     Type
  6242 ;;  event           2    4[BANK0 ] PTR unsigned char 
  6243 ;;		 -> STR_10(3), main@event(3), 
  6244 ;;  speed           1    6[BANK0 ] unsigned char 
  6245 ;; Auto vars:     Size  Location     Type
  6246 ;;		None
  6247 ;; Return value:  Size  Location     Type
  6248 ;;                  1    wreg      void 
  6249 ;; Registers used:
  6250 ;;		wreg, fsr0l, fsr0h, status,2, status,0, btemp+1, pclath, cstack
  6251 ;; Tracked objects:
  6252 ;;		On entry : 0/0
  6253 ;;		On exit  : 0/0
  6254 ;;		Unchanged: 0/0
  6255 ;; Data sizes:     COMMON   BANK0   BANK1   BANK3   BANK2
  6256 ;;      Params:         0       3       0       0       0
  6257 ;;      Locals:         0       0       0       0       0
  6258 ;;      Temps:          0       2       0       0       0
  6259 ;;      Totals:         0       5       0       0       0
  6260 ;;Total ram usage:        5 bytes
  6261 ;; Hardware stack levels used: 1
  6262 ;; Hardware stack levels required when called: 6
  6263 ;; This function calls:
  6264 ;;		___awdiv
  6265 ;;		___awmod
  6266 ;;		_get_time
  6267 ;;		_log_event
  6268 ;;		_strncpy
  6269 ;; This function is called by:
  6270 ;;		_main
  6271 ;; This function uses a non-reentrant model
  6272 ;;
  6273                           
  6274     16E7                     _log_car_event:	
  6275                           ;psect for function _log_car_event
  6276                           
  6277     16E7                     l4693:	
  6278                           ;incstack = 0
  6279                           ; Regs used in _log_car_event: [wreg-fsr0h+status,2+status,0+btemp+1+pclath+cstack]
  6280                           
  6281                           
  6282                           ;cbb.c: 515: void log_car_event(char *event, char speed);cbb.c: 516: {;cbb.c: 517:     g
      +                          et_time();
  6283     16E7  120A  158A  2174  160A  118A  	fcall	_get_time
  6284     16EC                     l4695:
  6285                           
  6286                           ;cbb.c: 519:     strncpy(log,time,6);
  6287     16EC  30D4               	movlw	(low (_time| 0))& (0+255)
  6288     16ED  00F2               	movwf	strncpy@from
  6289     16EE  3000               	movlw	0
  6290     16EF  00F3               	movwf	strncpy@from+1
  6291     16F0  3006               	movlw	6
  6292     16F1  00F4               	movwf	strncpy@size
  6293     16F2  3000               	movlw	0
  6294     16F3  00F5               	movwf	strncpy@size+1
  6295     16F4  30C9               	movlw	(low (_log| 0))& (0+255)
  6296     16F5  160A  118A  25F6  160A  118A  	fcall	_strncpy
  6297     16FA                     l4697:
  6298                           
  6299                           ;cbb.c: 520:     strncpy(&log[6],event,2);
  6300     16FA  1283               	bcf	3,5	;RP0=0, select bank0
  6301     16FB  1303               	bcf	3,6	;RP1=0, select bank0
  6302     16FC  0824               	movf	log_car_event@event,w
  6303     16FD  00F2               	movwf	strncpy@from
  6304     16FE  0825               	movf	log_car_event@event+1,w
  6305     16FF  00F3               	movwf	strncpy@from+1
  6306     1700  3002               	movlw	2
  6307     1701  00F4               	movwf	strncpy@size
  6308     1702  3000               	movlw	0
  6309     1703  00F5               	movwf	strncpy@size+1
  6310     1704  30CF               	movlw	(low ((_log| 0+6)))& (0+255)
  6311     1705  160A  118A  25F6  160A  118A  	fcall	_strncpy
  6312                           
  6313                           ;cbb.c: 522:     log[8] = speed/10 + '0';
  6314     170A  300A               	movlw	10
  6315     170B  00F2               	movwf	___awdiv@divisor
  6316     170C  3000               	movlw	0
  6317     170D  00F3               	movwf	___awdiv@divisor+1
  6318     170E  1283               	bcf	3,5	;RP0=0, select bank0
  6319     170F  1303               	bcf	3,6	;RP1=0, select bank0
  6320     1710  0826               	movf	log_car_event@speed,w
  6321     1711  00A7               	movwf	??_log_car_event
  6322     1712  01A8               	clrf	??_log_car_event+1
  6323     1713  0827               	movf	??_log_car_event,w
  6324     1714  00F4               	movwf	___awdiv@dividend
  6325     1715  0828               	movf	??_log_car_event+1,w
  6326     1716  00F5               	movwf	___awdiv@dividend+1
  6327     1717  120A  158A  2018  160A  118A  	fcall	___awdiv
  6328     171C  0872               	movf	?___awdiv,w
  6329     171D  3E30               	addlw	48
  6330     171E  1683               	bsf	3,5	;RP0=1, select bank1
  6331     171F  1303               	bcf	3,6	;RP1=0, select bank1
  6332     1720  00D1               	movwf	(_log^(0+128)+8)
  6333                           
  6334                           ;cbb.c: 523:     log[9] = speed % 10 + '0';
  6335     1721  300A               	movlw	10
  6336     1722  00F2               	movwf	___awmod@divisor
  6337     1723  3000               	movlw	0
  6338     1724  00F3               	movwf	___awmod@divisor+1
  6339     1725  1283               	bcf	3,5	;RP0=0, select bank0
  6340     1726  1303               	bcf	3,6	;RP1=0, select bank0
  6341     1727  0826               	movf	log_car_event@speed,w
  6342     1728  00A7               	movwf	??_log_car_event
  6343     1729  01A8               	clrf	??_log_car_event+1
  6344     172A  0827               	movf	??_log_car_event,w
  6345     172B  00F4               	movwf	___awmod@dividend
  6346     172C  0828               	movf	??_log_car_event+1,w
  6347     172D  00F5               	movwf	___awmod@dividend+1
  6348     172E  160A  118A  273F  160A  118A  	fcall	___awmod
  6349     1733  0872               	movf	?___awmod,w
  6350     1734  3E30               	addlw	48
  6351     1735  1683               	bsf	3,5	;RP0=1, select bank1
  6352     1736  1303               	bcf	3,6	;RP1=0, select bank1
  6353     1737  00D2               	movwf	(_log^(0+128)+9)
  6354     1738                     l4699:
  6355                           
  6356                           ;cbb.c: 524:     log[10] = '\0';
  6357     1738  01D3               	clrf	(_log^(0+128)+10)
  6358     1739                     l4701:
  6359                           
  6360                           ;cbb.c: 526:     log_event();
  6361     1739  160A  118A  252A  160A  118A  	fcall	_log_event
  6362     173E                     l513:
  6363     173E  0008               	return
  6364     173F                     __end_of_log_car_event:
  6365                           
  6366                           	psect	text9
  6367     15F6                     __ptext9:	
  6368 ;; *************** function _strncpy *****************
  6369 ;; Defined at:
  6370 ;;		line 8 in file "C:\Program Files\Microchip\xc8\v2.40\pic\sources\c90\common\strncpy.c"
  6371 ;; Parameters:    Size  Location     Type
  6372 ;;  to              1    wreg     PTR unsigned char 
  6373 ;;		 -> log(11), 
  6374 ;;  from            2    2[COMMON] PTR const unsigned char 
  6375 ;;		 -> time(7), STR_10(3), main@event(3), 
  6376 ;;  size            2    4[COMMON] unsigned int 
  6377 ;; Auto vars:     Size  Location     Type
  6378 ;;  to              1    0[BANK0 ] PTR unsigned char 
  6379 ;;		 -> log(11), 
  6380 ;;  cp              1    1[BANK0 ] PTR unsigned char 
  6381 ;;		 -> log(11), 
  6382 ;; Return value:  Size  Location     Type
  6383 ;;                  1    wreg      PTR unsigned char 
  6384 ;; Registers used:
  6385 ;;		wreg, fsr0l, fsr0h, status,2, status,0, btemp+1, pclath
  6386 ;; Tracked objects:
  6387 ;;		On entry : 0/0
  6388 ;;		On exit  : 0/0
  6389 ;;		Unchanged: 0/0
  6390 ;; Data sizes:     COMMON   BANK0   BANK1   BANK3   BANK2
  6391 ;;      Params:         4       0       0       0       0
  6392 ;;      Locals:         0       2       0       0       0
  6393 ;;      Temps:          3       0       0       0       0
  6394 ;;      Totals:         7       2       0       0       0
  6395 ;;Total ram usage:        9 bytes
  6396 ;; Hardware stack levels used: 2
  6397 ;; Hardware stack levels required when called: 1
  6398 ;; This function calls:
  6399 ;;		Nothing
  6400 ;; This function is called by:
  6401 ;;		_log_car_event
  6402 ;; This function uses a non-reentrant model
  6403 ;;
  6404                           
  6405     15F6                     _strncpy:	
  6406                           ;psect for function _strncpy
  6407                           
  6408                           
  6409                           ;incstack = 0
  6410                           ; Regs used in _strncpy: [wreg-fsr0h+status,2+status,0+btemp+1+pclath]
  6411                           ;strncpy@to stored from wreg
  6412     15F6  1283               	bcf	3,5	;RP0=0, select bank0
  6413     15F7  1303               	bcf	3,6	;RP1=0, select bank0
  6414     15F8  00A0               	movwf	strncpy@to
  6415     15F9                     l4583:
  6416     15F9  0820               	movf	strncpy@to,w
  6417     15FA  00A1               	movwf	strncpy@cp
  6418     15FB  2E20               	goto	l4591
  6419     15FC                     l4585:
  6420     15FC  3001               	movlw	1
  6421     15FD  02F4               	subwf	strncpy@size,f
  6422     15FE  3000               	movlw	0
  6423     15FF  1C03               	skipc
  6424     1600  03F5               	decf	strncpy@size+1,f
  6425     1601  02F5               	subwf	strncpy@size+1,f
  6426     1602                     l4587:
  6427     1602  0873               	movf	strncpy@from+1,w
  6428     1603  00F7               	movwf	??_strncpy+1
  6429     1604  0872               	movf	strncpy@from,w
  6430     1605  00F6               	movwf	??_strncpy
  6431     1606  0AF2               	incf	strncpy@from,f
  6432     1607  1903               	skipnz
  6433     1608  0AF3               	incf	strncpy@from+1,f
  6434     1609  0877               	movf	??_strncpy+1,w
  6435     160A  00FF               	movwf	btemp+1
  6436     160B  0876               	movf	??_strncpy,w
  6437     160C  0084               	movwf	4
  6438     160D  160A  118A  216E  160A  118A  	fcall	stringtab
  6439     1612  00F8               	movwf	??_strncpy+2
  6440     1613  0821               	movf	strncpy@cp,w
  6441     1614  0084               	movwf	4
  6442     1615  3001               	movlw	1
  6443     1616  07A1               	addwf	strncpy@cp,f
  6444     1617  0878               	movf	??_strncpy+2,w
  6445     1618  1383               	bcf	3,7	;select IRP bank0
  6446     1619  0080               	movwf	0
  6447     161A  0800               	movf	0,w
  6448     161B  1D03               	btfss	3,2
  6449     161C  2E1E               	goto	u4531
  6450     161D  2E1F               	goto	u4530
  6451     161E                     u4531:
  6452     161E  2E20               	goto	l4591
  6453     161F                     u4530:
  6454     161F  2E2F               	goto	l4597
  6455     1620                     l4591:
  6456     1620  0874               	movf	strncpy@size,w
  6457     1621  0475               	iorwf	strncpy@size+1,w
  6458     1622  1D03               	btfss	3,2
  6459     1623  2E25               	goto	u4541
  6460     1624  2E26               	goto	u4540
  6461     1625                     u4541:
  6462     1625  2DFC               	goto	l4585
  6463     1626                     u4540:
  6464     1626  2E2F               	goto	l4597
  6465     1627                     l4593:
  6466     1627  0821               	movf	strncpy@cp,w
  6467     1628  0084               	movwf	4
  6468     1629  1383               	bcf	3,7	;select IRP bank0
  6469     162A  0180               	clrf	0
  6470     162B                     l4595:
  6471     162B  3001               	movlw	1
  6472     162C  00F6               	movwf	??_strncpy
  6473     162D  0876               	movf	??_strncpy,w
  6474     162E  07A1               	addwf	strncpy@cp,f
  6475     162F                     l4597:
  6476     162F  3001               	movlw	1
  6477     1630  02F4               	subwf	strncpy@size,f
  6478     1631  3000               	movlw	0
  6479     1632  1C03               	skipc
  6480     1633  03F5               	decf	strncpy@size+1,f
  6481     1634  02F5               	subwf	strncpy@size+1,f
  6482     1635  0A74               	incf	strncpy@size,w
  6483     1636  1D03               	skipz
  6484     1637  2E3C               	goto	u4551
  6485     1638  0A75               	incf	strncpy@size+1,w
  6486     1639  1D03               	btfss	3,2
  6487     163A  2E3C               	goto	u4551
  6488     163B  2E3D               	goto	u4550
  6489     163C                     u4551:
  6490     163C  2E27               	goto	l4593
  6491     163D                     u4550:
  6492     163D                     l1227:
  6493     163D  0008               	return
  6494     163E                     __end_of_strncpy:
  6495                           
  6496                           	psect	text10
  6497     152A                     __ptext10:	
  6498 ;; *************** function _log_event *****************
  6499 ;; Defined at:
  6500 ;;		line 91 in file "cbb.c"
  6501 ;; Parameters:    Size  Location     Type
  6502 ;;		None
  6503 ;; Auto vars:     Size  Location     Type
  6504 ;;  addr            1    2[BANK0 ] unsigned char 
  6505 ;; Return value:  Size  Location     Type
  6506 ;;                  1    wreg      void 
  6507 ;; Registers used:
  6508 ;;		wreg, fsr0l, fsr0h, status,2, status,0, btemp+1, pclath, cstack
  6509 ;; Tracked objects:
  6510 ;;		On entry : 0/0
  6511 ;;		On exit  : 0/0
  6512 ;;		Unchanged: 0/0
  6513 ;; Data sizes:     COMMON   BANK0   BANK1   BANK3   BANK2
  6514 ;;      Params:         0       0       0       0       0
  6515 ;;      Locals:         0       1       0       0       0
  6516 ;;      Temps:          0       1       0       0       0
  6517 ;;      Totals:         0       2       0       0       0
  6518 ;;Total ram usage:        2 bytes
  6519 ;; Hardware stack levels used: 1
  6520 ;; Hardware stack levels required when called: 5
  6521 ;; This function calls:
  6522 ;;		___bmul
  6523 ;;		_eeprom_at24c04_str_write
  6524 ;; This function is called by:
  6525 ;;		_log_car_event
  6526 ;; This function uses a non-reentrant model
  6527 ;;
  6528                           
  6529     152A                     _log_event:	
  6530                           ;psect for function _log_event
  6531                           
  6532     152A                     l4521:	
  6533                           ;incstack = 0
  6534                           ; Regs used in _log_event: [wreg-fsr0h+status,2+status,0+btemp+1+pclath+cstack]
  6535                           
  6536                           
  6537                           ;cbb.c: 93:     char addr = 0x05;
  6538     152A  3005               	movlw	5
  6539     152B  1283               	bcf	3,5	;RP0=0, select bank0
  6540     152C  1303               	bcf	3,6	;RP1=0, select bank0
  6541     152D  00A2               	movwf	log_event@addr
  6542     152E                     l4523:
  6543                           
  6544                           ;cbb.c: 94:     pos++;
  6545     152E  3001               	movlw	1
  6546     152F  00A1               	movwf	??_log_event
  6547     1530  0821               	movf	??_log_event,w
  6548     1531  07DB               	addwf	_pos,f
  6549     1532                     l4525:
  6550                           
  6551                           ;cbb.c: 95:     if(pos == 10)
  6552     1532  300A               	movlw	10
  6553     1533  065B               	xorwf	_pos,w
  6554     1534  1D03               	btfss	3,2
  6555     1535  2D37               	goto	u4471
  6556     1536  2D38               	goto	u4470
  6557     1537                     u4471:
  6558     1537  2D3B               	goto	l4531
  6559     1538                     u4470:
  6560     1538                     l4527:
  6561                           
  6562                           ;cbb.c: 96:     {;cbb.c: 97:         pos = 0;
  6563     1538  01DB               	clrf	_pos
  6564     1539                     l4529:
  6565                           
  6566                           ;cbb.c: 98:         overflow = 1;
  6567     1539  01CA               	clrf	_overflow
  6568     153A  0ACA               	incf	_overflow,f
  6569     153B                     l4531:
  6570                           
  6571                           ;cbb.c: 100:     addr = pos * 10 + addr;
  6572     153B  300A               	movlw	10
  6573     153C  00F2               	movwf	___bmul@multiplicand
  6574     153D  085B               	movf	_pos,w
  6575     153E  160A  118A  2283  160A  118A  	fcall	___bmul
  6576     1543  1283               	bcf	3,5	;RP0=0, select bank0
  6577     1544  1303               	bcf	3,6	;RP1=0, select bank0
  6578     1545  0722               	addwf	log_event@addr,w
  6579     1546  00A2               	movwf	log_event@addr
  6580     1547                     l4533:
  6581                           
  6582                           ;cbb.c: 101:     eeprom_at24c04_str_write(addr,log);
  6583     1547  30C9               	movlw	(low (_log| 0))& (0+255)
  6584     1548  00F7               	movwf	eeprom_at24c04_str_write@data
  6585     1549  3000               	movlw	0
  6586     154A  00F8               	movwf	eeprom_at24c04_str_write@data+1
  6587     154B  0822               	movf	log_event@addr,w
  6588     154C  160A  118A  23EE  160A  118A  	fcall	_eeprom_at24c04_str_write
  6589     1551                     l4535:
  6590                           
  6591                           ;cbb.c: 103:     if(pos2 < 9)
  6592     1551  1283               	bcf	3,5	;RP0=0, select bank0
  6593     1552  1303               	bcf	3,6	;RP1=0, select bank0
  6594     1553  0854               	movf	_pos2+1,w
  6595     1554  3A80               	xorlw	128
  6596     1555  00FF               	movwf	btemp+1
  6597     1556  3080               	movlw	128
  6598     1557  027F               	subwf	btemp+1,w
  6599     1558  1D03               	skipz
  6600     1559  2D5C               	goto	u4485
  6601     155A  3009               	movlw	9
  6602     155B  0253               	subwf	_pos2,w
  6603     155C                     u4485:
  6604     155C  1803               	skipnc
  6605     155D  2D5F               	goto	u4481
  6606     155E  2D60               	goto	u4480
  6607     155F                     u4481:
  6608     155F  2D68               	goto	l381
  6609     1560                     u4480:
  6610     1560                     l4537:
  6611                           
  6612                           ;cbb.c: 104:     {;cbb.c: 105:         pos2++;
  6613     1560  3001               	movlw	1
  6614     1561  1283               	bcf	3,5	;RP0=0, select bank0
  6615     1562  1303               	bcf	3,6	;RP1=0, select bank0
  6616     1563  07D3               	addwf	_pos2,f
  6617     1564  1803               	skipnc
  6618     1565  0AD4               	incf	_pos2+1,f
  6619     1566  3000               	movlw	0
  6620     1567  07D4               	addwf	_pos2+1,f
  6621     1568                     l381:
  6622     1568  0008               	return
  6623     1569                     __end_of_log_event:
  6624                           
  6625                           	psect	text11
  6626     14B2                     __ptext11:	
  6627 ;; *************** function _init_config *****************
  6628 ;; Defined at:
  6629 ;;		line 25 in file "main.c"
  6630 ;; Parameters:    Size  Location     Type
  6631 ;;		None
  6632 ;; Auto vars:     Size  Location     Type
  6633 ;;		None
  6634 ;; Return value:  Size  Location     Type
  6635 ;;                  1    wreg      void 
  6636 ;; Registers used:
  6637 ;;		wreg, status,2, status,0, pclath, cstack
  6638 ;; Tracked objects:
  6639 ;;		On entry : 0/0
  6640 ;;		On exit  : 0/0
  6641 ;;		Unchanged: 0/0
  6642 ;; Data sizes:     COMMON   BANK0   BANK1   BANK3   BANK2
  6643 ;;      Params:         0       0       0       0       0
  6644 ;;      Locals:         0       0       0       0       0
  6645 ;;      Temps:          0       0       0       0       0
  6646 ;;      Totals:         0       0       0       0       0
  6647 ;;Total ram usage:        0 bytes
  6648 ;; Hardware stack levels used: 1
  6649 ;; Hardware stack levels required when called: 6
  6650 ;; This function calls:
  6651 ;;		_init_adc
  6652 ;;		_init_clcd
  6653 ;;		_init_digital_keypad
  6654 ;;		_init_ds1307
  6655 ;;		_init_i2c
  6656 ;;		_init_timer2
  6657 ;;		_init_uarts
  6658 ;; This function is called by:
  6659 ;;		_main
  6660 ;; This function uses a non-reentrant model
  6661 ;;
  6662                           
  6663     14B2                     _init_config:	
  6664                           ;psect for function _init_config
  6665                           
  6666     14B2                     l4681:	
  6667                           ;incstack = 0
  6668                           ; Regs used in _init_config: [wreg+status,2+status,0+pclath+cstack]
  6669                           
  6670                           
  6671                           ;main.c: 27:     init_config();
  6672     14B2  160A  118A  21E2  160A  118A  	fcall	_init_clcd
  6673                           
  6674                           ;main.c: 28:     unsigned char reset_flag,menu_p;
  6675     14B7  3000               	movlw	0
  6676     14B8  1283               	bcf	3,5	;RP0=0, select bank0
  6677     14B9  1303               	bcf	3,6	;RP1=0, select bank0
  6678     14BA  00A9               	movwf	init_i2c@baud+3
  6679     14BB  3001               	movlw	1
  6680     14BC  00A8               	movwf	init_i2c@baud+2
  6681     14BD  3086               	movlw	134
  6682     14BE  00A7               	movwf	init_i2c@baud+1
  6683     14BF  30A0               	movlw	160
  6684     14C0  00A6               	movwf	init_i2c@baud
  6685     14C1  160A  118A  2480  160A  118A  	fcall	_init_i2c
  6686                           
  6687                           ;main.c: 29:     char time_set;
  6688     14C6  160A  118A  2248  160A  118A  	fcall	_init_ds1307
  6689                           
  6690                           ;main.c: 30:     unsigned char dwnld_log;
  6691     14CB  160A  118A  2190  160A  118A  	fcall	_init_digital_keypad
  6692     14D0                     l4683:
  6693                           
  6694                           ;main.c: 31: 
  6695     14D0  160A  118A  2196  160A  118A  	fcall	_init_adc
  6696     14D5                     l4685:
  6697                           
  6698                           ;main.c: 32:     char *gear[] = {"GN","G1","G2","G3","G4","GR"};
  6699     14D5  160A  118A  21FA  160A  118A  	fcall	_init_timer2
  6700     14DA                     l4687:
  6701                           
  6702                           ;main.c: 33:     char event[] = "ON";
  6703     14DA  3000               	movlw	0
  6704     14DB  1283               	bcf	3,5	;RP0=0, select bank0
  6705     14DC  1303               	bcf	3,6	;RP1=0, select bank0
  6706     14DD  00A9               	movwf	init_uarts@baud+3
  6707     14DE  3000               	movlw	0
  6708     14DF  00A8               	movwf	init_uarts@baud+2
  6709     14E0  3025               	movlw	37
  6710     14E1  00A7               	movwf	init_uarts@baud+1
  6711     14E2  3080               	movlw	128
  6712     14E3  00A6               	movwf	init_uarts@baud
  6713     14E4  160A  118A  241D  160A  118A  	fcall	_init_uarts
  6714     14E9                     l4689:
  6715                           
  6716                           ;main.c: 35: 
  6717     14E9  178B               	bsf	11,7	;volatile
  6718     14EA                     l4691:
  6719                           
  6720                           ;main.c: 36: 
  6721     14EA  170B               	bsf	11,6	;volatile
  6722     14EB                     l87:
  6723     14EB  0008               	return
  6724     14EC                     __end_of_init_config:
  6725                           
  6726                           	psect	text12
  6727     141D                     __ptext12:	
  6728 ;; *************** function _init_uarts *****************
  6729 ;; Defined at:
  6730 ;;		line 4 in file "uart.c"
  6731 ;; Parameters:    Size  Location     Type
  6732 ;;  baud            4    6[BANK0 ] unsigned long 
  6733 ;; Auto vars:     Size  Location     Type
  6734 ;;		None
  6735 ;; Return value:  Size  Location     Type
  6736 ;;                  1    wreg      void 
  6737 ;; Registers used:
  6738 ;;		wreg, status,2, status,0, pclath, cstack
  6739 ;; Tracked objects:
  6740 ;;		On entry : 0/0
  6741 ;;		On exit  : 0/0
  6742 ;;		Unchanged: 0/0
  6743 ;; Data sizes:     COMMON   BANK0   BANK1   BANK3   BANK2
  6744 ;;      Params:         0       4       0       0       0
  6745 ;;      Locals:         0       0       0       0       0
  6746 ;;      Temps:          0       4       0       0       0
  6747 ;;      Totals:         0       8       0       0       0
  6748 ;;Total ram usage:        8 bytes
  6749 ;; Hardware stack levels used: 1
  6750 ;; Hardware stack levels required when called: 2
  6751 ;; This function calls:
  6752 ;;		___lldiv
  6753 ;; This function is called by:
  6754 ;;		_init_config
  6755 ;; This function uses a non-reentrant model
  6756 ;;
  6757                           
  6758     141D                     _init_uarts:	
  6759                           ;psect for function _init_uarts
  6760                           
  6761     141D                     l4489:	
  6762                           ;incstack = 0
  6763                           ; Regs used in _init_uarts: [wreg+status,2+status,0+pclath+cstack]
  6764                           
  6765                           
  6766                           ;uart.c: 4: void init_uarts(unsigned long baud);uart.c: 5: {;uart.c: 7:     SPEN = 1;
  6767     141D  1283               	bcf	3,5	;RP0=0, select bank0
  6768     141E  1303               	bcf	3,6	;RP1=0, select bank0
  6769     141F  1798               	bsf	24,7	;volatile
  6770                           
  6771                           ;uart.c: 10:     CREN = 1;
  6772     1420  1618               	bsf	24,4	;volatile
  6773     1421                     l4491:
  6774                           
  6775                           ;uart.c: 13:     SPBRG = (20000000 / (16 * baud)) - 1;
  6776     1421  0826               	movf	init_uarts@baud,w
  6777     1422  00AA               	movwf	??_init_uarts
  6778     1423  0827               	movf	init_uarts@baud+1,w
  6779     1424  00AB               	movwf	??_init_uarts+1
  6780     1425  0828               	movf	init_uarts@baud+2,w
  6781     1426  00AC               	movwf	??_init_uarts+2
  6782     1427  0829               	movf	init_uarts@baud+3,w
  6783     1428  00AD               	movwf	??_init_uarts+3
  6784     1429  3004               	movlw	4
  6785     142A                     u4435:
  6786     142A  1003               	clrc
  6787     142B  0DAA               	rlf	??_init_uarts,f
  6788     142C  0DAB               	rlf	??_init_uarts+1,f
  6789     142D  0DAC               	rlf	??_init_uarts+2,f
  6790     142E  0DAD               	rlf	??_init_uarts+3,f
  6791     142F                     u4430:
  6792     142F  3EFF               	addlw	-1
  6793     1430  1D03               	skipz
  6794     1431  2C2A               	goto	u4435
  6795     1432  082D               	movf	??_init_uarts+3,w
  6796     1433  00F5               	movwf	___lldiv@divisor+3
  6797     1434  082C               	movf	??_init_uarts+2,w
  6798     1435  00F4               	movwf	___lldiv@divisor+2
  6799     1436  082B               	movf	??_init_uarts+1,w
  6800     1437  00F3               	movwf	___lldiv@divisor+1
  6801     1438  082A               	movf	??_init_uarts,w
  6802     1439  00F2               	movwf	___lldiv@divisor
  6803     143A  3001               	movlw	1
  6804     143B  00F9               	movwf	___lldiv@dividend+3
  6805     143C  3031               	movlw	49
  6806     143D  00F8               	movwf	___lldiv@dividend+2
  6807     143E  302D               	movlw	45
  6808     143F  00F7               	movwf	___lldiv@dividend+1
  6809     1440  3000               	movlw	0
  6810     1441  00F6               	movwf	___lldiv@dividend
  6811     1442  160A  118A  2798  160A  118A  	fcall	___lldiv
  6812     1447  0872               	movf	?___lldiv,w
  6813     1448  3EFF               	addlw	255
  6814     1449  1683               	bsf	3,5	;RP0=1, select bank1
  6815     144A  1303               	bcf	3,6	;RP1=0, select bank1
  6816     144B  0099               	movwf	25	;volatile
  6817     144C                     l4493:
  6818                           
  6819                           ;uart.c: 16:     RCIE = 1;
  6820     144C  168C               	bsf	12,5	;volatile
  6821     144D                     l642:
  6822     144D  0008               	return
  6823     144E                     __end_of_init_uarts:
  6824                           
  6825                           	psect	text13
  6826     11FA                     __ptext13:	
  6827 ;; *************** function _init_timer2 *****************
  6828 ;; Defined at:
  6829 ;;		line 3 in file "timers.c"
  6830 ;; Parameters:    Size  Location     Type
  6831 ;;		None
  6832 ;; Auto vars:     Size  Location     Type
  6833 ;;		None
  6834 ;; Return value:  Size  Location     Type
  6835 ;;                  1    wreg      void 
  6836 ;; Registers used:
  6837 ;;		wreg
  6838 ;; Tracked objects:
  6839 ;;		On entry : 0/0
  6840 ;;		On exit  : 0/0
  6841 ;;		Unchanged: 0/0
  6842 ;; Data sizes:     COMMON   BANK0   BANK1   BANK3   BANK2
  6843 ;;      Params:         0       0       0       0       0
  6844 ;;      Locals:         0       0       0       0       0
  6845 ;;      Temps:          0       0       0       0       0
  6846 ;;      Totals:         0       0       0       0       0
  6847 ;;Total ram usage:        0 bytes
  6848 ;; Hardware stack levels used: 1
  6849 ;; Hardware stack levels required when called: 1
  6850 ;; This function calls:
  6851 ;;		Nothing
  6852 ;; This function is called by:
  6853 ;;		_init_config
  6854 ;; This function uses a non-reentrant model
  6855 ;;
  6856                           
  6857     11FA                     _init_timer2:	
  6858                           ;psect for function _init_timer2
  6859                           
  6860     11FA                     l4481:	
  6861                           ;incstack = 0
  6862                           ; Regs used in _init_timer2: [wreg]
  6863                           
  6864                           
  6865                           ;timers.c: 6:     T2CKPS0 = 1;
  6866     11FA  1283               	bcf	3,5	;RP0=0, select bank0
  6867     11FB  1303               	bcf	3,6	;RP1=0, select bank0
  6868     11FC  1412               	bsf	18,0	;volatile
  6869                           
  6870                           ;timers.c: 7:     T2CKPS1 = 1;
  6871     11FD  1492               	bsf	18,1	;volatile
  6872     11FE                     l4483:
  6873                           
  6874                           ;timers.c: 10:     PR2 = 250;
  6875     11FE  30FA               	movlw	250
  6876     11FF  1683               	bsf	3,5	;RP0=1, select bank1
  6877     1200  1303               	bcf	3,6	;RP1=0, select bank1
  6878     1201  0092               	movwf	18	;volatile
  6879     1202                     l4485:
  6880                           
  6881                           ;timers.c: 13:     TMR2IE = 1;
  6882     1202  148C               	bsf	12,1	;volatile
  6883     1203                     l4487:
  6884                           
  6885                           ;timers.c: 16:     TMR2ON = 0;
  6886     1203  1283               	bcf	3,5	;RP0=0, select bank0
  6887     1204  1303               	bcf	3,6	;RP1=0, select bank0
  6888     1205  1112               	bcf	18,2	;volatile
  6889     1206                     l623:
  6890     1206  0008               	return
  6891     1207                     __end_of_init_timer2:
  6892                           
  6893                           	psect	text14
  6894     1480                     __ptext14:	
  6895 ;; *************** function _init_i2c *****************
  6896 ;; Defined at:
  6897 ;;		line 4 in file "i2c.c"
  6898 ;; Parameters:    Size  Location     Type
  6899 ;;  baud            4    6[BANK0 ] unsigned long 
  6900 ;; Auto vars:     Size  Location     Type
  6901 ;;		None
  6902 ;; Return value:  Size  Location     Type
  6903 ;;                  1    wreg      void 
  6904 ;; Registers used:
  6905 ;;		wreg, status,2, status,0, pclath, cstack
  6906 ;; Tracked objects:
  6907 ;;		On entry : 0/0
  6908 ;;		On exit  : 0/0
  6909 ;;		Unchanged: 0/0
  6910 ;; Data sizes:     COMMON   BANK0   BANK1   BANK3   BANK2
  6911 ;;      Params:         0       4       0       0       0
  6912 ;;      Locals:         0       0       0       0       0
  6913 ;;      Temps:          0       4       0       0       0
  6914 ;;      Totals:         0       8       0       0       0
  6915 ;;Total ram usage:        8 bytes
  6916 ;; Hardware stack levels used: 1
  6917 ;; Hardware stack levels required when called: 2
  6918 ;; This function calls:
  6919 ;;		___lldiv
  6920 ;; This function is called by:
  6921 ;;		_init_config
  6922 ;; This function uses a non-reentrant model
  6923 ;;
  6924                           
  6925     1480                     _init_i2c:	
  6926                           ;psect for function _init_i2c
  6927                           
  6928     1480                     l4465:	
  6929                           ;incstack = 0
  6930                           ; Regs used in _init_i2c: [wreg+status,2+status,0+pclath+cstack]
  6931                           
  6932                           
  6933                           ;i2c.c: 4: void init_i2c(unsigned long baud);i2c.c: 5: {;i2c.c: 7:     SSPM3 = 1;
  6934     1480  1283               	bcf	3,5	;RP0=0, select bank0
  6935     1481  1303               	bcf	3,6	;RP1=0, select bank0
  6936     1482  1594               	bsf	20,3	;volatile
  6937     1483                     l4467:
  6938                           
  6939                           ;i2c.c: 10:     SSPADD = (unsigned char)(20000000 / (4 * baud)) - 1;
  6940     1483  0826               	movf	init_i2c@baud,w
  6941     1484  00AA               	movwf	??_init_i2c
  6942     1485  0827               	movf	init_i2c@baud+1,w
  6943     1486  00AB               	movwf	??_init_i2c+1
  6944     1487  0828               	movf	init_i2c@baud+2,w
  6945     1488  00AC               	movwf	??_init_i2c+2
  6946     1489  0829               	movf	init_i2c@baud+3,w
  6947     148A  00AD               	movwf	??_init_i2c+3
  6948     148B  3002               	movlw	2
  6949     148C                     u4425:
  6950     148C  1003               	clrc
  6951     148D  0DAA               	rlf	??_init_i2c,f
  6952     148E  0DAB               	rlf	??_init_i2c+1,f
  6953     148F  0DAC               	rlf	??_init_i2c+2,f
  6954     1490  0DAD               	rlf	??_init_i2c+3,f
  6955     1491                     u4420:
  6956     1491  3EFF               	addlw	-1
  6957     1492  1D03               	skipz
  6958     1493  2C8C               	goto	u4425
  6959     1494  082D               	movf	??_init_i2c+3,w
  6960     1495  00F5               	movwf	___lldiv@divisor+3
  6961     1496  082C               	movf	??_init_i2c+2,w
  6962     1497  00F4               	movwf	___lldiv@divisor+2
  6963     1498  082B               	movf	??_init_i2c+1,w
  6964     1499  00F3               	movwf	___lldiv@divisor+1
  6965     149A  082A               	movf	??_init_i2c,w
  6966     149B  00F2               	movwf	___lldiv@divisor
  6967     149C  3001               	movlw	1
  6968     149D  00F9               	movwf	___lldiv@dividend+3
  6969     149E  3031               	movlw	49
  6970     149F  00F8               	movwf	___lldiv@dividend+2
  6971     14A0  302D               	movlw	45
  6972     14A1  00F7               	movwf	___lldiv@dividend+1
  6973     14A2  3000               	movlw	0
  6974     14A3  00F6               	movwf	___lldiv@dividend
  6975     14A4  160A  118A  2798  160A  118A  	fcall	___lldiv
  6976     14A9  0872               	movf	?___lldiv,w
  6977     14AA  3EFF               	addlw	255
  6978     14AB  1683               	bsf	3,5	;RP0=1, select bank1
  6979     14AC  1303               	bcf	3,6	;RP1=0, select bank1
  6980     14AD  0093               	movwf	19	;volatile
  6981     14AE                     l4469:
  6982                           
  6983                           ;i2c.c: 13:     SSPEN = 1;
  6984     14AE  1283               	bcf	3,5	;RP0=0, select bank0
  6985     14AF  1303               	bcf	3,6	;RP1=0, select bank0
  6986     14B0  1694               	bsf	20,5	;volatile
  6987     14B1                     l238:
  6988     14B1  0008               	return
  6989     14B2                     __end_of_init_i2c:
  6990                           
  6991                           	psect	text15
  6992     1798                     __ptext15:	
  6993 ;; *************** function ___lldiv *****************
  6994 ;; Defined at:
  6995 ;;		line 5 in file "C:\Program Files\Microchip\xc8\v2.40\pic\sources\c90\common\__lldiv.c"
  6996 ;; Parameters:    Size  Location     Type
  6997 ;;  divisor         4    2[COMMON] unsigned long 
  6998 ;;  dividend        4    6[COMMON] unsigned long 
  6999 ;; Auto vars:     Size  Location     Type
  7000 ;;  quotient        4    1[BANK0 ] unsigned long 
  7001 ;;  counter         1    5[BANK0 ] unsigned char 
  7002 ;; Return value:  Size  Location     Type
  7003 ;;                  4    2[COMMON] unsigned long 
  7004 ;; Registers used:
  7005 ;;		wreg, status,2, status,0
  7006 ;; Tracked objects:
  7007 ;;		On entry : 0/0
  7008 ;;		On exit  : 0/0
  7009 ;;		Unchanged: 0/0
  7010 ;; Data sizes:     COMMON   BANK0   BANK1   BANK3   BANK2
  7011 ;;      Params:         8       0       0       0       0
  7012 ;;      Locals:         0       5       0       0       0
  7013 ;;      Temps:          0       1       0       0       0
  7014 ;;      Totals:         8       6       0       0       0
  7015 ;;Total ram usage:       14 bytes
  7016 ;; Hardware stack levels used: 1
  7017 ;; Hardware stack levels required when called: 1
  7018 ;; This function calls:
  7019 ;;		Nothing
  7020 ;; This function is called by:
  7021 ;;		_init_i2c
  7022 ;;		_init_uarts
  7023 ;; This function uses a non-reentrant model
  7024 ;;
  7025                           
  7026     1798                     ___lldiv:	
  7027                           ;psect for function ___lldiv
  7028                           
  7029     1798                     l4433:	
  7030                           ;incstack = 0
  7031                           ; Regs used in ___lldiv: [wreg+status,2+status,0]
  7032                           
  7033     1798  3000               	movlw	0
  7034     1799  1283               	bcf	3,5	;RP0=0, select bank0
  7035     179A  1303               	bcf	3,6	;RP1=0, select bank0
  7036     179B  00A4               	movwf	___lldiv@quotient+3
  7037     179C  3000               	movlw	0
  7038     179D  00A3               	movwf	___lldiv@quotient+2
  7039     179E  3000               	movlw	0
  7040     179F  00A2               	movwf	___lldiv@quotient+1
  7041     17A0  3000               	movlw	0
  7042     17A1  00A1               	movwf	___lldiv@quotient
  7043     17A2  0875               	movf	___lldiv@divisor+3,w
  7044     17A3  0474               	iorwf	___lldiv@divisor+2,w
  7045     17A4  0473               	iorwf	___lldiv@divisor+1,w
  7046     17A5  0472               	iorwf	___lldiv@divisor,w
  7047     17A6  1903               	skipnz
  7048     17A7  2FA9               	goto	u4351
  7049     17A8  2FAA               	goto	u4350
  7050     17A9                     u4351:
  7051     17A9  2FF7               	goto	l4453
  7052     17AA                     u4350:
  7053     17AA                     l4435:
  7054     17AA  01A5               	clrf	___lldiv@counter
  7055     17AB  0AA5               	incf	___lldiv@counter,f
  7056     17AC  2FBA               	goto	l4439
  7057     17AD                     l4437:
  7058     17AD  3001               	movlw	1
  7059     17AE  00A0               	movwf	??___lldiv
  7060     17AF                     u4365:
  7061     17AF  1003               	clrc
  7062     17B0  0DF2               	rlf	___lldiv@divisor,f
  7063     17B1  0DF3               	rlf	___lldiv@divisor+1,f
  7064     17B2  0DF4               	rlf	___lldiv@divisor+2,f
  7065     17B3  0DF5               	rlf	___lldiv@divisor+3,f
  7066     17B4  0BA0               	decfsz	??___lldiv,f
  7067     17B5  2FAF               	goto	u4365
  7068     17B6  3001               	movlw	1
  7069     17B7  00A0               	movwf	??___lldiv
  7070     17B8  0820               	movf	??___lldiv,w
  7071     17B9  07A5               	addwf	___lldiv@counter,f
  7072     17BA                     l4439:
  7073     17BA  1FF5               	btfss	___lldiv@divisor+3,7
  7074     17BB  2FBD               	goto	u4371
  7075     17BC  2FBE               	goto	u4370
  7076     17BD                     u4371:
  7077     17BD  2FAD               	goto	l4437
  7078     17BE                     u4370:
  7079     17BE                     l4441:
  7080     17BE  3001               	movlw	1
  7081     17BF  00A0               	movwf	??___lldiv
  7082     17C0                     u4385:
  7083     17C0  1003               	clrc
  7084     17C1  0DA1               	rlf	___lldiv@quotient,f
  7085     17C2  0DA2               	rlf	___lldiv@quotient+1,f
  7086     17C3  0DA3               	rlf	___lldiv@quotient+2,f
  7087     17C4  0DA4               	rlf	___lldiv@quotient+3,f
  7088     17C5  0BA0               	decfsz	??___lldiv,f
  7089     17C6  2FC0               	goto	u4385
  7090     17C7                     l4443:
  7091     17C7  0875               	movf	___lldiv@divisor+3,w
  7092     17C8  0279               	subwf	___lldiv@dividend+3,w
  7093     17C9  1D03               	skipz
  7094     17CA  2FD5               	goto	u4395
  7095     17CB  0874               	movf	___lldiv@divisor+2,w
  7096     17CC  0278               	subwf	___lldiv@dividend+2,w
  7097     17CD  1D03               	skipz
  7098     17CE  2FD5               	goto	u4395
  7099     17CF  0873               	movf	___lldiv@divisor+1,w
  7100     17D0  0277               	subwf	___lldiv@dividend+1,w
  7101     17D1  1D03               	skipz
  7102     17D2  2FD5               	goto	u4395
  7103     17D3  0872               	movf	___lldiv@divisor,w
  7104     17D4  0276               	subwf	___lldiv@dividend,w
  7105     17D5                     u4395:
  7106     17D5  1C03               	skipc
  7107     17D6  2FD8               	goto	u4391
  7108     17D7  2FD9               	goto	u4390
  7109     17D8                     u4391:
  7110     17D8  2FE8               	goto	l4449
  7111     17D9                     u4390:
  7112     17D9                     l4445:
  7113     17D9  0872               	movf	___lldiv@divisor,w
  7114     17DA  02F6               	subwf	___lldiv@dividend,f
  7115     17DB  0873               	movf	___lldiv@divisor+1,w
  7116     17DC  1C03               	skipc
  7117     17DD  0F73               	incfsz	___lldiv@divisor+1,w
  7118     17DE  02F7               	subwf	___lldiv@dividend+1,f
  7119     17DF  0874               	movf	___lldiv@divisor+2,w
  7120     17E0  1C03               	skipc
  7121     17E1  0F74               	incfsz	___lldiv@divisor+2,w
  7122     17E2  02F8               	subwf	___lldiv@dividend+2,f
  7123     17E3  0875               	movf	___lldiv@divisor+3,w
  7124     17E4  1C03               	skipc
  7125     17E5  0F75               	incfsz	___lldiv@divisor+3,w
  7126     17E6  02F9               	subwf	___lldiv@dividend+3,f
  7127     17E7                     l4447:
  7128     17E7  1421               	bsf	___lldiv@quotient,0
  7129     17E8                     l4449:
  7130     17E8  3001               	movlw	1
  7131     17E9                     u4405:
  7132     17E9  1003               	clrc
  7133     17EA  0CF5               	rrf	___lldiv@divisor+3,f
  7134     17EB  0CF4               	rrf	___lldiv@divisor+2,f
  7135     17EC  0CF3               	rrf	___lldiv@divisor+1,f
  7136     17ED  0CF2               	rrf	___lldiv@divisor,f
  7137     17EE  3EFF               	addlw	-1
  7138     17EF  1D03               	skipz
  7139     17F0  2FE9               	goto	u4405
  7140     17F1                     l4451:
  7141     17F1  3001               	movlw	1
  7142     17F2  02A5               	subwf	___lldiv@counter,f
  7143     17F3  1D03               	btfss	3,2
  7144     17F4  2FF6               	goto	u4411
  7145     17F5  2FF7               	goto	u4410
  7146     17F6                     u4411:
  7147     17F6  2FBE               	goto	l4441
  7148     17F7                     u4410:
  7149     17F7                     l4453:
  7150     17F7  0824               	movf	___lldiv@quotient+3,w
  7151     17F8  00F5               	movwf	?___lldiv+3
  7152     17F9  0823               	movf	___lldiv@quotient+2,w
  7153     17FA  00F4               	movwf	?___lldiv+2
  7154     17FB  0822               	movf	___lldiv@quotient+1,w
  7155     17FC  00F3               	movwf	?___lldiv+1
  7156     17FD  0821               	movf	___lldiv@quotient,w
  7157     17FE  00F2               	movwf	?___lldiv
  7158     17FF                     l782:
  7159     17FF  0008               	return
  7160     1800                     __end_of___lldiv:
  7161                           
  7162                           	psect	text16
  7163     1248                     __ptext16:	
  7164 ;; *************** function _init_ds1307 *****************
  7165 ;; Defined at:
  7166 ;;		line 5 in file "ds1307.c"
  7167 ;; Parameters:    Size  Location     Type
  7168 ;;		None
  7169 ;; Auto vars:     Size  Location     Type
  7170 ;;  dummy           1    6[COMMON] unsigned char 
  7171 ;; Return value:  Size  Location     Type
  7172 ;;                  1    wreg      void 
  7173 ;; Registers used:
  7174 ;;		wreg, status,2, status,0, pclath, cstack
  7175 ;; Tracked objects:
  7176 ;;		On entry : 0/0
  7177 ;;		On exit  : 0/0
  7178 ;;		Unchanged: 0/0
  7179 ;; Data sizes:     COMMON   BANK0   BANK1   BANK3   BANK2
  7180 ;;      Params:         0       0       0       0       0
  7181 ;;      Locals:         1       0       0       0       0
  7182 ;;      Temps:          0       0       0       0       0
  7183 ;;      Totals:         1       0       0       0       0
  7184 ;;Total ram usage:        1 bytes
  7185 ;; Hardware stack levels used: 1
  7186 ;; Hardware stack levels required when called: 5
  7187 ;; This function calls:
  7188 ;;		_read_ds1307
  7189 ;;		_write_ds1307
  7190 ;; This function is called by:
  7191 ;;		_init_config
  7192 ;; This function uses a non-reentrant model
  7193 ;;
  7194                           
  7195     1248                     _init_ds1307:	
  7196                           ;psect for function _init_ds1307
  7197                           
  7198     1248                     l4471:	
  7199                           ;incstack = 0
  7200                           ; Regs used in _init_ds1307: [wreg+status,2+status,0+pclath+cstack]
  7201                           
  7202                           
  7203                           ;ds1307.c: 7:     unsigned char dummy;;ds1307.c: 9:     dummy = read_ds1307(0x00);
  7204     1248  3000               	movlw	0
  7205     1249  160A  118A  2369  160A  118A  	fcall	_read_ds1307
  7206     124E  00F6               	movwf	init_ds1307@dummy
  7207     124F                     l4473:
  7208                           
  7209                           ;ds1307.c: 10:     dummy = dummy & 0x7F;
  7210     124F  0876               	movf	init_ds1307@dummy,w
  7211     1250  397F               	andlw	127
  7212     1251  00F6               	movwf	init_ds1307@dummy
  7213     1252                     l4475:
  7214                           
  7215                           ;ds1307.c: 11:     write_ds1307(0x00, dummy);
  7216     1252  0876               	movf	init_ds1307@dummy,w
  7217     1253  00F3               	movwf	write_ds1307@data
  7218     1254  3000               	movlw	0
  7219     1255  160A  118A  2298  160A  118A  	fcall	_write_ds1307
  7220     125A                     l203:
  7221     125A  0008               	return
  7222     125B                     __end_of_init_ds1307:
  7223                           
  7224                           	psect	text17
  7225     1298                     __ptext17:	
  7226 ;; *************** function _write_ds1307 *****************
  7227 ;; Defined at:
  7228 ;;		line 29 in file "ds1307.c"
  7229 ;; Parameters:    Size  Location     Type
  7230 ;;  addr            1    wreg     unsigned char 
  7231 ;;  data            1    3[COMMON] unsigned char 
  7232 ;; Auto vars:     Size  Location     Type
  7233 ;;  addr            1    4[COMMON] unsigned char 
  7234 ;; Return value:  Size  Location     Type
  7235 ;;                  1    wreg      void 
  7236 ;; Registers used:
  7237 ;;		wreg, status,2, status,0, pclath, cstack
  7238 ;; Tracked objects:
  7239 ;;		On entry : 0/0
  7240 ;;		On exit  : 0/0
  7241 ;;		Unchanged: 0/0
  7242 ;; Data sizes:     COMMON   BANK0   BANK1   BANK3   BANK2
  7243 ;;      Params:         1       0       0       0       0
  7244 ;;      Locals:         1       0       0       0       0
  7245 ;;      Temps:          0       0       0       0       0
  7246 ;;      Totals:         2       0       0       0       0
  7247 ;;Total ram usage:        2 bytes
  7248 ;; Hardware stack levels used: 1
  7249 ;; Hardware stack levels required when called: 3
  7250 ;; This function calls:
  7251 ;;		_i2c_start
  7252 ;;		_i2c_stop
  7253 ;;		_i2c_write
  7254 ;; This function is called by:
  7255 ;;		_init_ds1307
  7256 ;;		_set_time
  7257 ;; This function uses a non-reentrant model
  7258 ;;
  7259                           
  7260     1298                     _write_ds1307:	
  7261                           ;psect for function _write_ds1307
  7262                           
  7263                           
  7264                           ;incstack = 0
  7265                           ; Regs used in _write_ds1307: [wreg+status,2+status,0+pclath+cstack]
  7266                           ;write_ds1307@addr stored from wreg
  7267     1298  00F4               	movwf	write_ds1307@addr
  7268     1299                     l4385:
  7269                           
  7270                           ;ds1307.c: 29: void write_ds1307(unsigned char addr, unsigned char data);ds1307.c: 30: {
      +                          ;ds1307.c: 31:     i2c_start();
  7271     1299  160A  118A  21A5  160A  118A  	fcall	_i2c_start
  7272                           
  7273                           ;ds1307.c: 32:     i2c_write(0b11010000);
  7274     129E  30D0               	movlw	208
  7275     129F  160A  118A  21C1  160A  118A  	fcall	_i2c_write
  7276                           
  7277                           ;ds1307.c: 33:     i2c_write(addr);
  7278     12A4  0874               	movf	write_ds1307@addr,w
  7279     12A5  160A  118A  21C1  160A  118A  	fcall	_i2c_write
  7280                           
  7281                           ;ds1307.c: 34:     i2c_write(data);
  7282     12AA  0873               	movf	write_ds1307@data,w
  7283     12AB  160A  118A  21C1  160A  118A  	fcall	_i2c_write
  7284                           
  7285                           ;ds1307.c: 35:     i2c_stop();
  7286     12B0  160A  118A  21AE  160A  118A  	fcall	_i2c_stop
  7287     12B5                     l209:
  7288     12B5  0008               	return
  7289     12B6                     __end_of_write_ds1307:
  7290                           
  7291                           	psect	text18
  7292     1190                     __ptext18:	
  7293 ;; *************** function _init_digital_keypad *****************
  7294 ;; Defined at:
  7295 ;;		line 8 in file "digital_keypad.c"
  7296 ;; Parameters:    Size  Location     Type
  7297 ;;		None
  7298 ;; Auto vars:     Size  Location     Type
  7299 ;;		None
  7300 ;; Return value:  Size  Location     Type
  7301 ;;                  1    wreg      void 
  7302 ;; Registers used:
  7303 ;;		wreg, status,2
  7304 ;; Tracked objects:
  7305 ;;		On entry : 0/0
  7306 ;;		On exit  : 0/0
  7307 ;;		Unchanged: 0/0
  7308 ;; Data sizes:     COMMON   BANK0   BANK1   BANK3   BANK2
  7309 ;;      Params:         0       0       0       0       0
  7310 ;;      Locals:         0       0       0       0       0
  7311 ;;      Temps:          0       0       0       0       0
  7312 ;;      Totals:         0       0       0       0       0
  7313 ;;Total ram usage:        0 bytes
  7314 ;; Hardware stack levels used: 1
  7315 ;; Hardware stack levels required when called: 1
  7316 ;; This function calls:
  7317 ;;		Nothing
  7318 ;; This function is called by:
  7319 ;;		_init_config
  7320 ;; This function uses a non-reentrant model
  7321 ;;
  7322                           
  7323     1190                     _init_digital_keypad:	
  7324                           ;psect for function _init_digital_keypad
  7325                           
  7326     1190                     l4477:	
  7327                           ;incstack = 0
  7328                           ; Regs used in _init_digital_keypad: [wreg+status,2]
  7329                           
  7330                           
  7331                           ;digital_keypad.c: 11:  static unsigned char pre_key ;
  7332     1190  1683               	bsf	3,5	;RP0=1, select bank1
  7333     1191  1303               	bcf	3,6	;RP1=0, select bank1
  7334     1192  0806               	movf	6,w	;volatile
  7335     1193  383F               	iorlw	63
  7336     1194  0086               	movwf	6	;volatile
  7337     1195                     l272:
  7338     1195  0008               	return
  7339     1196                     __end_of_init_digital_keypad:
  7340                           
  7341                           	psect	text19
  7342     11E2                     __ptext19:	
  7343 ;; *************** function _init_clcd *****************
  7344 ;; Defined at:
  7345 ;;		line 37 in file "clcd.c"
  7346 ;; Parameters:    Size  Location     Type
  7347 ;;		None
  7348 ;; Auto vars:     Size  Location     Type
  7349 ;;		None
  7350 ;; Return value:  Size  Location     Type
  7351 ;;                  1    wreg      void 
  7352 ;; Registers used:
  7353 ;;		wreg, status,2, status,0, pclath, cstack
  7354 ;; Tracked objects:
  7355 ;;		On entry : 0/0
  7356 ;;		On exit  : 0/0
  7357 ;;		Unchanged: 0/0
  7358 ;; Data sizes:     COMMON   BANK0   BANK1   BANK3   BANK2
  7359 ;;      Params:         0       0       0       0       0
  7360 ;;      Locals:         0       0       0       0       0
  7361 ;;      Temps:          0       0       0       0       0
  7362 ;;      Totals:         0       0       0       0       0
  7363 ;;Total ram usage:        0 bytes
  7364 ;; Hardware stack levels used: 1
  7365 ;; Hardware stack levels required when called: 3
  7366 ;; This function calls:
  7367 ;;		_init_display_controller
  7368 ;; This function is called by:
  7369 ;;		_init_config
  7370 ;; This function uses a non-reentrant model
  7371 ;;
  7372                           
  7373     11E2                     _init_clcd:	
  7374                           ;psect for function _init_clcd
  7375                           
  7376     11E2                     l4457:	
  7377                           ;incstack = 0
  7378                           ; Regs used in _init_clcd: [wreg+status,2+status,0+pclath+cstack]
  7379                           
  7380                           
  7381                           ;clcd.c: 40:     TRISD = 0x00;
  7382     11E2  1683               	bsf	3,5	;RP0=1, select bank1
  7383     11E3  1303               	bcf	3,6	;RP1=0, select bank1
  7384     11E4  0188               	clrf	8	;volatile
  7385     11E5                     l4459:
  7386                           
  7387                           ;clcd.c: 43:     TRISE2 = 0;
  7388     11E5  1109               	bcf	9,2	;volatile
  7389     11E6                     l4461:
  7390                           
  7391                           ;clcd.c: 44:     TRISE1 = 0;
  7392     11E6  1089               	bcf	9,1	;volatile
  7393     11E7                     l4463:
  7394                           
  7395                           ;clcd.c: 46:     init_display_controller();
  7396     11E7  160A  118A  2690  160A  118A  	fcall	_init_display_controller
  7397     11EC                     l177:
  7398     11EC  0008               	return
  7399     11ED                     __end_of_init_clcd:
  7400                           
  7401                           	psect	text20
  7402     1690                     __ptext20:	
  7403 ;; *************** function _init_display_controller *****************
  7404 ;; Defined at:
  7405 ;;		line 16 in file "clcd.c"
  7406 ;; Parameters:    Size  Location     Type
  7407 ;;		None
  7408 ;; Auto vars:     Size  Location     Type
  7409 ;;		None
  7410 ;; Return value:  Size  Location     Type
  7411 ;;                  1    wreg      void 
  7412 ;; Registers used:
  7413 ;;		wreg, status,2, status,0, pclath, cstack
  7414 ;; Tracked objects:
  7415 ;;		On entry : 0/0
  7416 ;;		On exit  : 0/0
  7417 ;;		Unchanged: 0/0
  7418 ;; Data sizes:     COMMON   BANK0   BANK1   BANK3   BANK2
  7419 ;;      Params:         0       0       0       0       0
  7420 ;;      Locals:         0       0       0       0       0
  7421 ;;      Temps:          2       0       0       0       0
  7422 ;;      Totals:         2       0       0       0       0
  7423 ;;Total ram usage:        2 bytes
  7424 ;; Hardware stack levels used: 1
  7425 ;; Hardware stack levels required when called: 2
  7426 ;; This function calls:
  7427 ;;		_clcd_write
  7428 ;; This function is called by:
  7429 ;;		_init_clcd
  7430 ;; This function uses a non-reentrant model
  7431 ;;
  7432                           
  7433     1690                     _init_display_controller:	
  7434                           ;psect for function _init_display_controller
  7435                           
  7436     1690                     l4363:	
  7437                           ;incstack = 0
  7438                           ; Regs used in _init_display_controller: [wreg+status,2+status,0+pclath+cstack]
  7439                           
  7440                           
  7441                           ;clcd.c: 19:     _delay((unsigned long)((30)*(20000000/4000.0)));
  7442     1690  30C3               	movlw	195
  7443     1691  00F7               	movwf	??_init_display_controller+1
  7444     1692  30CD               	movlw	205
  7445     1693  00F6               	movwf	??_init_display_controller
  7446     1694                     u6327:
  7447     1694  0BF6               	decfsz	??_init_display_controller,f
  7448     1695  2E94               	goto	u6327
  7449     1696  0BF7               	decfsz	??_init_display_controller+1,f
  7450     1697  2E94               	goto	u6327
  7451     1698                     l4365:
  7452                           
  7453                           ;clcd.c: 22:     clcd_write(0x33, 0);
  7454     1698  01F2               	clrf	clcd_write@mode
  7455     1699  3033               	movlw	51
  7456     169A  160A  118A  22B6  160A  118A  	fcall	_clcd_write
  7457     169F                     l4367:
  7458                           
  7459                           ;clcd.c: 23:     _delay((unsigned long)((4100)*(20000000/4000000.0)));
  7460     169F  301B               	movlw	27
  7461     16A0  00F7               	movwf	??_init_display_controller+1
  7462     16A1  309E               	movlw	158
  7463     16A2  00F6               	movwf	??_init_display_controller
  7464     16A3                     u6337:
  7465     16A3  0BF6               	decfsz	??_init_display_controller,f
  7466     16A4  2EA3               	goto	u6337
  7467     16A5  0BF7               	decfsz	??_init_display_controller+1,f
  7468     16A6  2EA3               	goto	u6337
  7469     16A7  0000               	nop
  7470                           
  7471                           ;clcd.c: 24:     clcd_write(0x33, 0);
  7472     16A8  01F2               	clrf	clcd_write@mode
  7473     16A9  3033               	movlw	51
  7474     16AA  160A  118A  22B6  160A  118A  	fcall	_clcd_write
  7475     16AF                     l4369:
  7476                           
  7477                           ;clcd.c: 25:     _delay((unsigned long)((100)*(20000000/4000000.0)));
  7478     16AF  30A6               	movlw	166
  7479     16B0  00F6               	movwf	??_init_display_controller
  7480     16B1                     u6347:
  7481     16B1  0BF6               	decfsz	??_init_display_controller,f
  7482     16B2  2EB1               	goto	u6347
  7483     16B3  0000               	nop
  7484     16B4                     l4371:
  7485                           
  7486                           ;clcd.c: 26:     clcd_write(0x33, 0);
  7487     16B4  01F2               	clrf	clcd_write@mode
  7488     16B5  3033               	movlw	51
  7489     16B6  160A  118A  22B6  160A  118A  	fcall	_clcd_write
  7490     16BB                     l4373:
  7491                           
  7492                           ;clcd.c: 27:     _delay((unsigned long)((1)*(20000000/4000000.0)));
  7493     16BB  2EBC               	nop2	;2 cycle nop
  7494     16BC  2EBD               	nop2	;2 cycle nop
  7495     16BD  0000               	nop
  7496     16BE                     l4375:
  7497                           
  7498                           ;clcd.c: 29:     clcd_write(0x38, 0);
  7499     16BE  01F2               	clrf	clcd_write@mode
  7500     16BF  3038               	movlw	56
  7501     16C0  160A  118A  22B6  160A  118A  	fcall	_clcd_write
  7502     16C5                     l4377:
  7503                           
  7504                           ;clcd.c: 30:     _delay((unsigned long)((100)*(20000000/4000000.0)));
  7505     16C5  30A6               	movlw	166
  7506     16C6  00F6               	movwf	??_init_display_controller
  7507     16C7                     u6357:
  7508     16C7  0BF6               	decfsz	??_init_display_controller,f
  7509     16C8  2EC7               	goto	u6357
  7510     16C9  0000               	nop
  7511                           
  7512                           ;clcd.c: 31:     clcd_write(0x01, 0);
  7513     16CA  01F2               	clrf	clcd_write@mode
  7514     16CB  3001               	movlw	1
  7515     16CC  160A  118A  22B6  160A  118A  	fcall	_clcd_write
  7516     16D1                     l4379:
  7517                           
  7518                           ;clcd.c: 32:     _delay((unsigned long)((500)*(20000000/4000000.0)));
  7519     16D1  3004               	movlw	4
  7520     16D2  00F7               	movwf	??_init_display_controller+1
  7521     16D3  303D               	movlw	61
  7522     16D4  00F6               	movwf	??_init_display_controller
  7523     16D5                     u6367:
  7524     16D5  0BF6               	decfsz	??_init_display_controller,f
  7525     16D6  2ED5               	goto	u6367
  7526     16D7  0BF7               	decfsz	??_init_display_controller+1,f
  7527     16D8  2ED5               	goto	u6367
  7528     16D9  2EDA               	nop2
  7529     16DA                     l4381:
  7530                           
  7531                           ;clcd.c: 33:     clcd_write(0x0C, 0);
  7532     16DA  01F2               	clrf	clcd_write@mode
  7533     16DB  300C               	movlw	12
  7534     16DC  160A  118A  22B6  160A  118A  	fcall	_clcd_write
  7535                           
  7536                           ;clcd.c: 34:     _delay((unsigned long)((100)*(20000000/4000000.0)));
  7537     16E1  30A6               	movlw	166
  7538     16E2  00F6               	movwf	??_init_display_controller
  7539     16E3                     u6377:
  7540     16E3  0BF6               	decfsz	??_init_display_controller,f
  7541     16E4  2EE3               	goto	u6377
  7542     16E5  0000               	nop
  7543     16E6                     l174:
  7544     16E6  0008               	return
  7545     16E7                     __end_of_init_display_controller:
  7546                           
  7547                           	psect	text21
  7548     1196                     __ptext21:	
  7549 ;; *************** function _init_adc *****************
  7550 ;; Defined at:
  7551 ;;		line 3 in file "adc.c"
  7552 ;; Parameters:    Size  Location     Type
  7553 ;;		None
  7554 ;; Auto vars:     Size  Location     Type
  7555 ;;		None
  7556 ;; Return value:  Size  Location     Type
  7557 ;;                  1    wreg      void 
  7558 ;; Registers used:
  7559 ;;		None
  7560 ;; Tracked objects:
  7561 ;;		On entry : 0/0
  7562 ;;		On exit  : 0/0
  7563 ;;		Unchanged: 0/0
  7564 ;; Data sizes:     COMMON   BANK0   BANK1   BANK3   BANK2
  7565 ;;      Params:         0       0       0       0       0
  7566 ;;      Locals:         0       0       0       0       0
  7567 ;;      Temps:          0       0       0       0       0
  7568 ;;      Totals:         0       0       0       0       0
  7569 ;;Total ram usage:        0 bytes
  7570 ;; Hardware stack levels used: 1
  7571 ;; Hardware stack levels required when called: 1
  7572 ;; This function calls:
  7573 ;;		Nothing
  7574 ;; This function is called by:
  7575 ;;		_init_config
  7576 ;; This function uses a non-reentrant model
  7577 ;;
  7578                           
  7579     1196                     _init_adc:	
  7580                           ;psect for function _init_adc
  7581                           
  7582     1196                     l4479:	
  7583                           ;incstack = 0
  7584                           ; Regs used in _init_adc: []
  7585                           
  7586                           
  7587                           ;adc.c: 6:     ADFM = 1;
  7588     1196  1683               	bsf	3,5	;RP0=1, select bank1
  7589     1197  1303               	bcf	3,6	;RP1=0, select bank1
  7590     1198  179F               	bsf	31,7	;volatile
  7591                           
  7592                           ;adc.c: 9:     ADON = 1;
  7593     1199  1283               	bcf	3,5	;RP0=0, select bank0
  7594     119A  1303               	bcf	3,6	;RP1=0, select bank0
  7595     119B  141F               	bsf	31,0	;volatile
  7596     119C                     l306:
  7597     119C  0008               	return
  7598     119D                     __end_of_init_adc:
  7599                           
  7600                           	psect	text22
  7601     0A20                     __ptext22:	
  7602 ;; *************** function _download_log *****************
  7603 ;; Defined at:
  7604 ;;		line 451 in file "cbb.c"
  7605 ;; Parameters:    Size  Location     Type
  7606 ;;		None
  7607 ;; Auto vars:     Size  Location     Type
  7608 ;;  i               2   14[BANK0 ] int 
  7609 ;;  download_log   11    0[BANK0 ] unsigned char [11]
  7610 ;;  new             2   12[BANK0 ] int 
  7611 ;;  s               2    0        PTR const unsigned char 
  7612 ;;  addr            1   11[BANK0 ] unsigned char 
  7613 ;; Return value:  Size  Location     Type
  7614 ;;                  1    wreg      void 
  7615 ;; Registers used:
  7616 ;;		wreg, fsr0l, fsr0h, status,2, status,0, btemp+1, pclath, cstack
  7617 ;; Tracked objects:
  7618 ;;		On entry : 0/0
  7619 ;;		On exit  : 0/0
  7620 ;;		Unchanged: 0/0
  7621 ;; Data sizes:     COMMON   BANK0   BANK1   BANK3   BANK2
  7622 ;;      Params:         0       0       0       0       0
  7623 ;;      Locals:         0      16       0       0       0
  7624 ;;      Temps:          1       0       0       0       0
  7625 ;;      Totals:         1      16       0       0       0
  7626 ;;Total ram usage:       17 bytes
  7627 ;; Hardware stack levels used: 1
  7628 ;; Hardware stack levels required when called: 5
  7629 ;; This function calls:
  7630 ;;		___awmod
  7631 ;;		___bmul
  7632 ;;		_eeprom_at24c04_randon_read
  7633 ;;		_putcharr
  7634 ;;		_putss
  7635 ;; This function is called by:
  7636 ;;		_main
  7637 ;; This function uses a non-reentrant model
  7638 ;;
  7639                           
  7640     0A20                     _download_log:	
  7641                           ;psect for function _download_log
  7642                           
  7643     0A20                     l5313:	
  7644                           ;incstack = 0
  7645                           ; Regs used in _download_log: [wreg-fsr0h+status,2+status,0+btemp+1+pclath+cstack]
  7646                           
  7647     0A20                     l5315:
  7648     0A20                     l5317:
  7649                           
  7650                           ;cbb.c: 457:     unsigned char download_log_arr[11];;cbb.c: 458:     download_log_arr[10
      +                          ] = 0;
  7651     0A20  1283               	bcf	3,5	;RP0=0, select bank0
  7652     0A21  1303               	bcf	3,6	;RP1=0, select bank0
  7653     0A22  01AA               	clrf	download_log@download_log_arr+10
  7654     0A23                     l5319:
  7655                           
  7656                           ;cbb.c: 461:     if (pos2 == -1)
  7657     0A23  0A53               	incf	_pos2,w
  7658     0A24  1D03               	skipz
  7659     0A25  2A2A               	goto	u5781
  7660     0A26  0A54               	incf	_pos2+1,w
  7661     0A27  1D03               	btfss	3,2
  7662     0A28  2A2A               	goto	u5781
  7663     0A29  2A2B               	goto	u5780
  7664     0A2A                     u5781:
  7665     0A2A  2A35               	goto	l5323
  7666     0A2B                     u5780:
  7667     0A2B                     l5321:
  7668                           
  7669                           ;cbb.c: 462:     {;cbb.c: 463:         putss("NO LOGS PRESENT");
  7670     0A2B  3055               	movlw	low (STR_29| (0+32768))
  7671     0A2C  00F3               	movwf	putss@s
  7672     0A2D  3090               	movlw	high (STR_29| (0+32768))
  7673     0A2E  00F4               	movwf	putss@s+1
  7674     0A2F  160A  118A  231C  120A  158A  	fcall	_putss
  7675                           
  7676                           ;cbb.c: 465:     }
  7677     0A34  2B52               	goto	l510
  7678     0A35                     l5323:
  7679                           
  7680                           ;cbb.c: 467:     {;cbb.c: 468:         putss("Logs :");
  7681     0A35  3038               	movlw	low (STR_30| (0+32768))
  7682     0A36  00F3               	movwf	putss@s
  7683     0A37  3091               	movlw	high (STR_30| (0+32768))
  7684     0A38  00F4               	movwf	putss@s+1
  7685     0A39  160A  118A  231C  120A  158A  	fcall	_putss
  7686     0A3E                     l5325:
  7687                           
  7688                           ;cbb.c: 469:   putcharr('\n');
  7689     0A3E  300A               	movlw	10
  7690     0A3F  160A  118A  21D7  120A  158A  	fcall	_putcharr
  7691     0A44                     l5327:
  7692                           
  7693                           ;cbb.c: 470:   putcharr('\n');
  7694     0A44  300A               	movlw	10
  7695     0A45  160A  118A  21D7  120A  158A  	fcall	_putcharr
  7696     0A4A                     l5329:
  7697                           
  7698                           ;cbb.c: 471:   putcharr('\r');
  7699     0A4A  300D               	movlw	13
  7700     0A4B  160A  118A  21D7  120A  158A  	fcall	_putcharr
  7701                           
  7702                           ;cbb.c: 473:         while(num < pos2)
  7703     0A50  2B42               	goto	l5355
  7704     0A51                     l5331:
  7705                           
  7706                           ;cbb.c: 474:            {;cbb.c: 475:               num++;
  7707     0A51  3001               	movlw	1
  7708     0A52  1283               	bcf	3,5	;RP0=0, select bank0
  7709     0A53  1303               	bcf	3,6	;RP1=0, select bank0
  7710     0A54  07D1               	addwf	download_log@num,f
  7711     0A55  1803               	skipnc
  7712     0A56  0AD2               	incf	download_log@num+1,f
  7713     0A57  3000               	movlw	0
  7714     0A58  07D2               	addwf	download_log@num+1,f
  7715     0A59                     l5333:
  7716                           
  7717                           ;cbb.c: 476:               new = (overflow)? (pos + 1) % 10 : 0;
  7718     0A59  084A               	movf	_overflow,w
  7719     0A5A  1D03               	btfss	3,2
  7720     0A5B  2A5D               	goto	u5791
  7721     0A5C  2A5E               	goto	u5790
  7722     0A5D                     u5791:
  7723     0A5D  2A61               	goto	l5337
  7724     0A5E                     u5790:
  7725     0A5E                     l5335:
  7726     0A5E  01AC               	clrf	download_log@new
  7727     0A5F  01AD               	clrf	download_log@new+1
  7728     0A60  2A77               	goto	l506
  7729     0A61                     l5337:
  7730     0A61  300A               	movlw	10
  7731     0A62  00F2               	movwf	___awmod@divisor
  7732     0A63  3000               	movlw	0
  7733     0A64  00F3               	movwf	___awmod@divisor+1
  7734     0A65  085B               	movf	_pos,w
  7735     0A66  3E01               	addlw	1
  7736     0A67  00F4               	movwf	___awmod@dividend
  7737     0A68  3000               	movlw	0
  7738     0A69  1803               	skipnc
  7739     0A6A  3001               	movlw	1
  7740     0A6B  00F5               	movwf	___awmod@dividend+1
  7741     0A6C  160A  118A  273F  120A  158A  	fcall	___awmod
  7742     0A71  0873               	movf	?___awmod+1,w
  7743     0A72  1283               	bcf	3,5	;RP0=0, select bank0
  7744     0A73  1303               	bcf	3,6	;RP1=0, select bank0
  7745     0A74  00AD               	movwf	download_log@new+1
  7746     0A75  0872               	movf	?___awmod,w
  7747     0A76  00AC               	movwf	download_log@new
  7748     0A77                     l506:
  7749                           
  7750                           ;cbb.c: 477:               new = (new + num)%10;
  7751     0A77  300A               	movlw	10
  7752     0A78  00F2               	movwf	___awmod@divisor
  7753     0A79  3000               	movlw	0
  7754     0A7A  00F3               	movwf	___awmod@divisor+1
  7755     0A7B  0851               	movf	download_log@num,w
  7756     0A7C  072C               	addwf	download_log@new,w
  7757     0A7D  00F4               	movwf	___awmod@dividend
  7758     0A7E  0852               	movf	download_log@num+1,w
  7759     0A7F  1803               	skipnc
  7760     0A80  0A52               	incf	download_log@num+1,w
  7761     0A81  072D               	addwf	download_log@new+1,w
  7762     0A82  00F5               	movwf	___awmod@dividend+1
  7763     0A83  160A  118A  273F  120A  158A  	fcall	___awmod
  7764     0A88  0873               	movf	?___awmod+1,w
  7765     0A89  1283               	bcf	3,5	;RP0=0, select bank0
  7766     0A8A  1303               	bcf	3,6	;RP1=0, select bank0
  7767     0A8B  00AD               	movwf	download_log@new+1
  7768     0A8C  0872               	movf	?___awmod,w
  7769     0A8D  00AC               	movwf	download_log@new
  7770     0A8E                     l5339:
  7771                           
  7772                           ;cbb.c: 480:              for (int i = 0; i < 10; i++)
  7773     0A8E  01AE               	clrf	download_log@i
  7774     0A8F  01AF               	clrf	download_log@i+1
  7775     0A90                     l5345:
  7776                           
  7777                           ;cbb.c: 481:             {;cbb.c: 482:                  addr = new * 10 + 0x05;
  7778     0A90  300A               	movlw	10
  7779     0A91  00F2               	movwf	___bmul@multiplicand
  7780     0A92  1283               	bcf	3,5	;RP0=0, select bank0
  7781     0A93  1303               	bcf	3,6	;RP1=0, select bank0
  7782     0A94  082C               	movf	download_log@new,w
  7783     0A95  160A  118A  2283  120A  158A  	fcall	___bmul
  7784     0A9A  3E05               	addlw	5
  7785     0A9B  1283               	bcf	3,5	;RP0=0, select bank0
  7786     0A9C  1303               	bcf	3,6	;RP1=0, select bank0
  7787     0A9D  00AB               	movwf	download_log@addr
  7788     0A9E                     l5347:
  7789                           
  7790                           ;cbb.c: 483:                 download_log_arr[i] = eeprom_at24c04_randon_read(addr + i);
  7791     0A9E  082E               	movf	download_log@i,w
  7792     0A9F  3E20               	addlw	(low (download_log@download_log_arr| 0))& (0+255)
  7793     0AA0  0084               	movwf	4
  7794     0AA1  082E               	movf	download_log@i,w
  7795     0AA2  072B               	addwf	download_log@addr,w
  7796     0AA3  160A  118A  2394  120A  158A  	fcall	_eeprom_at24c04_randon_read
  7797     0AA8  1383               	bcf	3,7	;select IRP bank0
  7798     0AA9  0080               	movwf	0
  7799     0AAA                     l5349:
  7800                           
  7801                           ;cbb.c: 485:             }
  7802     0AAA  3001               	movlw	1
  7803     0AAB  1283               	bcf	3,5	;RP0=0, select bank0
  7804     0AAC  1303               	bcf	3,6	;RP1=0, select bank0
  7805     0AAD  07AE               	addwf	download_log@i,f
  7806     0AAE  1803               	skipnc
  7807     0AAF  0AAF               	incf	download_log@i+1,f
  7808     0AB0  3000               	movlw	0
  7809     0AB1  07AF               	addwf	download_log@i+1,f
  7810     0AB2                     l5351:
  7811     0AB2  082F               	movf	download_log@i+1,w
  7812     0AB3  3A80               	xorlw	128
  7813     0AB4  00FF               	movwf	btemp+1
  7814     0AB5  3080               	movlw	128
  7815     0AB6  027F               	subwf	btemp+1,w
  7816     0AB7  1D03               	skipz
  7817     0AB8  2ABB               	goto	u5805
  7818     0AB9  300A               	movlw	10
  7819     0ABA  022E               	subwf	download_log@i,w
  7820     0ABB                     u5805:
  7821     0ABB  1C03               	skipc
  7822     0ABC  2ABE               	goto	u5801
  7823     0ABD  2ABF               	goto	u5800
  7824     0ABE                     u5801:
  7825     0ABE  2A90               	goto	l5345
  7826     0ABF                     u5800:
  7827     0ABF                     l5353:
  7828                           
  7829                           ;cbb.c: 488:                putcharr(num + '0');
  7830     0ABF  1283               	bcf	3,5	;RP0=0, select bank0
  7831     0AC0  1303               	bcf	3,6	;RP1=0, select bank0
  7832     0AC1  0851               	movf	download_log@num,w
  7833     0AC2  3E30               	addlw	48
  7834     0AC3  160A  118A  21D7  120A  158A  	fcall	_putcharr
  7835                           
  7836                           ;cbb.c: 489:                putcharr(' ');
  7837     0AC8  3020               	movlw	32
  7838     0AC9  160A  118A  21D7  120A  158A  	fcall	_putcharr
  7839                           
  7840                           ;cbb.c: 490:                putcharr(download_log_arr[0]);
  7841     0ACE  1283               	bcf	3,5	;RP0=0, select bank0
  7842     0ACF  1303               	bcf	3,6	;RP1=0, select bank0
  7843     0AD0  0820               	movf	download_log@download_log_arr,w
  7844     0AD1  160A  118A  21D7  120A  158A  	fcall	_putcharr
  7845                           
  7846                           ;cbb.c: 491:                putcharr(download_log_arr[1]);
  7847     0AD6  1283               	bcf	3,5	;RP0=0, select bank0
  7848     0AD7  1303               	bcf	3,6	;RP1=0, select bank0
  7849     0AD8  0821               	movf	download_log@download_log_arr+1,w
  7850     0AD9  160A  118A  21D7  120A  158A  	fcall	_putcharr
  7851                           
  7852                           ;cbb.c: 492:                putcharr(':');
  7853     0ADE  303A               	movlw	58
  7854     0ADF  160A  118A  21D7  120A  158A  	fcall	_putcharr
  7855                           
  7856                           ;cbb.c: 493:                putcharr(download_log_arr[2]);
  7857     0AE4  1283               	bcf	3,5	;RP0=0, select bank0
  7858     0AE5  1303               	bcf	3,6	;RP1=0, select bank0
  7859     0AE6  0822               	movf	download_log@download_log_arr+2,w
  7860     0AE7  160A  118A  21D7  120A  158A  	fcall	_putcharr
  7861                           
  7862                           ;cbb.c: 494:                putcharr(download_log_arr[3]);
  7863     0AEC  1283               	bcf	3,5	;RP0=0, select bank0
  7864     0AED  1303               	bcf	3,6	;RP1=0, select bank0
  7865     0AEE  0823               	movf	download_log@download_log_arr+3,w
  7866     0AEF  160A  118A  21D7  120A  158A  	fcall	_putcharr
  7867                           
  7868                           ;cbb.c: 495:                putcharr(':');
  7869     0AF4  303A               	movlw	58
  7870     0AF5  160A  118A  21D7  120A  158A  	fcall	_putcharr
  7871                           
  7872                           ;cbb.c: 496:                putcharr(download_log_arr[4]);
  7873     0AFA  1283               	bcf	3,5	;RP0=0, select bank0
  7874     0AFB  1303               	bcf	3,6	;RP1=0, select bank0
  7875     0AFC  0824               	movf	download_log@download_log_arr+4,w
  7876     0AFD  160A  118A  21D7  120A  158A  	fcall	_putcharr
  7877                           
  7878                           ;cbb.c: 497:                putcharr(download_log_arr[5]);
  7879     0B02  1283               	bcf	3,5	;RP0=0, select bank0
  7880     0B03  1303               	bcf	3,6	;RP1=0, select bank0
  7881     0B04  0825               	movf	download_log@download_log_arr+5,w
  7882     0B05  160A  118A  21D7  120A  158A  	fcall	_putcharr
  7883                           
  7884                           ;cbb.c: 498:                putcharr(' ');
  7885     0B0A  3020               	movlw	32
  7886     0B0B  160A  118A  21D7  120A  158A  	fcall	_putcharr
  7887                           
  7888                           ;cbb.c: 499:                putcharr(download_log_arr[6]);
  7889     0B10  1283               	bcf	3,5	;RP0=0, select bank0
  7890     0B11  1303               	bcf	3,6	;RP1=0, select bank0
  7891     0B12  0826               	movf	download_log@download_log_arr+6,w
  7892     0B13  160A  118A  21D7  120A  158A  	fcall	_putcharr
  7893                           
  7894                           ;cbb.c: 500:                putcharr(download_log_arr[7]);
  7895     0B18  1283               	bcf	3,5	;RP0=0, select bank0
  7896     0B19  1303               	bcf	3,6	;RP1=0, select bank0
  7897     0B1A  0827               	movf	download_log@download_log_arr+7,w
  7898     0B1B  160A  118A  21D7  120A  158A  	fcall	_putcharr
  7899                           
  7900                           ;cbb.c: 501:                putcharr(' ');
  7901     0B20  3020               	movlw	32
  7902     0B21  160A  118A  21D7  120A  158A  	fcall	_putcharr
  7903                           
  7904                           ;cbb.c: 502:                putcharr(download_log_arr[8]);
  7905     0B26  1283               	bcf	3,5	;RP0=0, select bank0
  7906     0B27  1303               	bcf	3,6	;RP1=0, select bank0
  7907     0B28  0828               	movf	download_log@download_log_arr+8,w
  7908     0B29  160A  118A  21D7  120A  158A  	fcall	_putcharr
  7909                           
  7910                           ;cbb.c: 503:                putcharr(download_log_arr[9]);
  7911     0B2E  1283               	bcf	3,5	;RP0=0, select bank0
  7912     0B2F  1303               	bcf	3,6	;RP1=0, select bank0
  7913     0B30  0829               	movf	download_log@download_log_arr+9,w
  7914     0B31  160A  118A  21D7  120A  158A  	fcall	_putcharr
  7915                           
  7916                           ;cbb.c: 504:                putcharr ( '\n' );
  7917     0B36  300A               	movlw	10
  7918     0B37  160A  118A  21D7  120A  158A  	fcall	_putcharr
  7919                           
  7920                           ;cbb.c: 505:                putcharr ('\r');
  7921     0B3C  300D               	movlw	13
  7922     0B3D  160A  118A  21D7  120A  158A  	fcall	_putcharr
  7923     0B42                     l5355:
  7924                           
  7925                           ;cbb.c: 473:         while(num < pos2)
  7926     0B42  1283               	bcf	3,5	;RP0=0, select bank0
  7927     0B43  1303               	bcf	3,6	;RP1=0, select bank0
  7928     0B44  0852               	movf	download_log@num+1,w
  7929     0B45  3A80               	xorlw	128
  7930     0B46  00F9               	movwf	??_download_log
  7931     0B47  0854               	movf	_pos2+1,w
  7932     0B48  3A80               	xorlw	128
  7933     0B49  0279               	subwf	??_download_log,w
  7934     0B4A  1D03               	skipz
  7935     0B4B  2B4E               	goto	u5815
  7936     0B4C  0853               	movf	_pos2,w
  7937     0B4D  0251               	subwf	download_log@num,w
  7938     0B4E                     u5815:
  7939     0B4E  1C03               	skipc
  7940     0B4F  2B51               	goto	u5811
  7941     0B50  2B52               	goto	u5810
  7942     0B51                     u5811:
  7943     0B51  2A51               	goto	l5331
  7944     0B52                     u5810:
  7945     0B52                     l510:
  7946     0B52  0008               	return
  7947     0B53                     __end_of_download_log:
  7948                           
  7949                           	psect	text23
  7950     131C                     __ptext23:	
  7951 ;; *************** function _putss *****************
  7952 ;; Defined at:
  7953 ;;		line 49 in file "uart.c"
  7954 ;; Parameters:    Size  Location     Type
  7955 ;;  s               2    3[COMMON] PTR const unsigned char 
  7956 ;;		 -> STR_30(7), STR_29(16), 
  7957 ;; Auto vars:     Size  Location     Type
  7958 ;;		None
  7959 ;; Return value:  Size  Location     Type
  7960 ;;                  1    wreg      void 
  7961 ;; Registers used:
  7962 ;;		wreg, fsr0l, fsr0h, status,2, status,0, btemp+1, pclath, cstack
  7963 ;; Tracked objects:
  7964 ;;		On entry : 0/0
  7965 ;;		On exit  : 0/0
  7966 ;;		Unchanged: 0/0
  7967 ;; Data sizes:     COMMON   BANK0   BANK1   BANK3   BANK2
  7968 ;;      Params:         2       0       0       0       0
  7969 ;;      Locals:         0       0       0       0       0
  7970 ;;      Temps:          0       0       0       0       0
  7971 ;;      Totals:         2       0       0       0       0
  7972 ;;Total ram usage:        2 bytes
  7973 ;; Hardware stack levels used: 1
  7974 ;; Hardware stack levels required when called: 2
  7975 ;; This function calls:
  7976 ;;		_putcharr
  7977 ;; This function is called by:
  7978 ;;		_download_log
  7979 ;; This function uses a non-reentrant model
  7980 ;;
  7981                           
  7982     131C                     _putss:	
  7983                           ;psect for function _putss
  7984                           
  7985     131C                     l4575:	
  7986                           ;incstack = 0
  7987                           ; Regs used in _putss: [wreg-fsr0h+status,2+status,0+btemp+1+pclath+cstack]
  7988                           
  7989                           
  7990                           ;uart.c: 49: void putss(const char *s);uart.c: 50: {;uart.c: 51:     while (*s)
  7991     131C  2B31               	goto	l4581
  7992     131D                     l4577:
  7993                           
  7994                           ;uart.c: 52:     {;uart.c: 53:         putcharr(*s++);
  7995     131D  0874               	movf	putss@s+1,w
  7996     131E  00FF               	movwf	btemp+1
  7997     131F  0873               	movf	putss@s,w
  7998     1320  0084               	movwf	4
  7999     1321  160A  118A  216E  160A  118A  	fcall	stringtab
  8000     1326  160A  118A  21D7  160A  118A  	fcall	_putcharr
  8001     132B                     l4579:
  8002     132B  3001               	movlw	1
  8003     132C  07F3               	addwf	putss@s,f
  8004     132D  1803               	skipnc
  8005     132E  0AF4               	incf	putss@s+1,f
  8006     132F  3000               	movlw	0
  8007     1330  07F4               	addwf	putss@s+1,f
  8008     1331                     l4581:
  8009                           
  8010                           ;uart.c: 51:     while (*s)
  8011     1331  0874               	movf	putss@s+1,w
  8012     1332  1283               	bcf	3,5	;RP0=0, select bank0
  8013     1333  1303               	bcf	3,6	;RP1=0, select bank0
  8014     1334  00FF               	movwf	btemp+1
  8015     1335  0873               	movf	putss@s,w
  8016     1336  0084               	movwf	4
  8017     1337  160A  118A  216E  160A  118A  	fcall	stringtab
  8018     133C  3A00               	xorlw	0
  8019     133D  1D03               	skipz
  8020     133E  2B40               	goto	u4521
  8021     133F  2B41               	goto	u4520
  8022     1340                     u4521:
  8023     1340  2B1D               	goto	l4577
  8024     1341                     u4520:
  8025     1341                     l660:
  8026     1341  0008               	return
  8027     1342                     __end_of_putss:
  8028                           
  8029                           	psect	text24
  8030     11D7                     __ptext24:	
  8031 ;; *************** function _putcharr *****************
  8032 ;; Defined at:
  8033 ;;		line 34 in file "uart.c"
  8034 ;; Parameters:    Size  Location     Type
  8035 ;;  data            1    wreg     unsigned char 
  8036 ;; Auto vars:     Size  Location     Type
  8037 ;;  data            1    2[COMMON] unsigned char 
  8038 ;; Return value:  Size  Location     Type
  8039 ;;                  1    wreg      void 
  8040 ;; Registers used:
  8041 ;;		wreg
  8042 ;; Tracked objects:
  8043 ;;		On entry : 0/0
  8044 ;;		On exit  : 0/0
  8045 ;;		Unchanged: 0/0
  8046 ;; Data sizes:     COMMON   BANK0   BANK1   BANK3   BANK2
  8047 ;;      Params:         0       0       0       0       0
  8048 ;;      Locals:         1       0       0       0       0
  8049 ;;      Temps:          0       0       0       0       0
  8050 ;;      Totals:         1       0       0       0       0
  8051 ;;Total ram usage:        1 bytes
  8052 ;; Hardware stack levels used: 1
  8053 ;; Hardware stack levels required when called: 1
  8054 ;; This function calls:
  8055 ;;		Nothing
  8056 ;; This function is called by:
  8057 ;;		_download_log
  8058 ;;		_putss
  8059 ;; This function uses a non-reentrant model
  8060 ;;
  8061                           
  8062     11D7                     _putcharr:	
  8063                           ;psect for function _putcharr
  8064                           
  8065                           
  8066                           ;incstack = 0
  8067                           ; Regs used in _putcharr: [wreg]
  8068                           ;putcharr@data stored from wreg
  8069     11D7  00F2               	movwf	putcharr@data
  8070     11D8                     l4417:
  8071                           
  8072                           ;uart.c: 34: void putcharr(unsigned char data);uart.c: 35: {;uart.c: 37:     TXREG = dat
      +                          a;
  8073     11D8  0872               	movf	putcharr@data,w
  8074     11D9  1283               	bcf	3,5	;RP0=0, select bank0
  8075     11DA  1303               	bcf	3,6	;RP1=0, select bank0
  8076     11DB  0099               	movwf	25	;volatile
  8077     11DC                     l652:	
  8078                           ;uart.c: 43:     } while (TXIF != 1);
  8079                           
  8080     11DC  1E0C               	btfss	12,4	;volatile
  8081     11DD  29DF               	goto	u4321
  8082     11DE  29E0               	goto	u4320
  8083     11DF                     u4321:
  8084     11DF  29DC               	goto	l652
  8085     11E0                     u4320:
  8086     11E0                     l653:
  8087                           
  8088                           ;uart.c: 46:     TXIF = 0;
  8089     11E0  120C               	bcf	12,4	;volatile
  8090     11E1                     l654:
  8091     11E1  0008               	return
  8092     11E2                     __end_of_putcharr:
  8093                           
  8094                           	psect	text25
  8095     1394                     __ptext25:	
  8096 ;; *************** function _eeprom_at24c04_randon_read *****************
  8097 ;; Defined at:
  8098 ;;		line 12 in file "at24c04.c"
  8099 ;; Parameters:    Size  Location     Type
  8100 ;;  memory_loc      1    wreg     unsigned char 
  8101 ;; Auto vars:     Size  Location     Type
  8102 ;;  memory_loc      1    4[COMMON] unsigned char 
  8103 ;;  received_dat    1    5[COMMON] unsigned char 
  8104 ;; Return value:  Size  Location     Type
  8105 ;;                  1    wreg      unsigned char 
  8106 ;; Registers used:
  8107 ;;		wreg, status,2, status,0, pclath, cstack
  8108 ;; Tracked objects:
  8109 ;;		On entry : 0/0
  8110 ;;		On exit  : 0/0
  8111 ;;		Unchanged: 0/0
  8112 ;; Data sizes:     COMMON   BANK0   BANK1   BANK3   BANK2
  8113 ;;      Params:         0       0       0       0       0
  8114 ;;      Locals:         2       0       0       0       0
  8115 ;;      Temps:          0       0       0       0       0
  8116 ;;      Totals:         2       0       0       0       0
  8117 ;;Total ram usage:        2 bytes
  8118 ;; Hardware stack levels used: 1
  8119 ;; Hardware stack levels required when called: 4
  8120 ;; This function calls:
  8121 ;;		_i2c_read
  8122 ;;		_i2c_rep_start
  8123 ;;		_i2c_start
  8124 ;;		_i2c_stop
  8125 ;;		_i2c_write
  8126 ;; This function is called by:
  8127 ;;		_view_log
  8128 ;;		_download_log
  8129 ;;		_login
  8130 ;; This function uses a non-reentrant model
  8131 ;;
  8132                           
  8133     1394                     _eeprom_at24c04_randon_read:	
  8134                           ;psect for function _eeprom_at24c04_randon_read
  8135                           
  8136                           
  8137                           ;incstack = 0
  8138                           ; Regs used in _eeprom_at24c04_randon_read: [wreg+status,2+status,0+pclath+cstack]
  8139                           ;eeprom_at24c04_randon_read@memory_loc stored from wreg
  8140     1394  00F4               	movwf	eeprom_at24c04_randon_read@memory_loc
  8141     1395                     l4539:
  8142     1395                     l4541:
  8143                           
  8144                           ;at24c04.c: 16:     i2c_start();
  8145     1395  160A  118A  21A5  160A  118A  	fcall	_i2c_start
  8146     139A                     l4543:
  8147                           
  8148                           ;at24c04.c: 17:     i2c_write(0xA0);
  8149     139A  30A0               	movlw	160
  8150     139B  160A  118A  21C1  160A  118A  	fcall	_i2c_write
  8151     13A0                     l4545:
  8152                           
  8153                           ;at24c04.c: 18:     i2c_write(memory_loc);
  8154     13A0  0874               	movf	eeprom_at24c04_randon_read@memory_loc,w
  8155     13A1  160A  118A  21C1  160A  118A  	fcall	_i2c_write
  8156     13A6                     l4547:
  8157                           
  8158                           ;at24c04.c: 19:     i2c_rep_start();
  8159     13A6  160A  118A  21CC  160A  118A  	fcall	_i2c_rep_start
  8160     13AB                     l4549:
  8161                           
  8162                           ;at24c04.c: 20:     i2c_write(0XA1);
  8163     13AB  30A1               	movlw	161
  8164     13AC  160A  118A  21C1  160A  118A  	fcall	_i2c_write
  8165     13B1                     l4551:
  8166                           
  8167                           ;at24c04.c: 21:     received_data = i2c_read(0);
  8168     13B1  3000               	movlw	0
  8169     13B2  160A  118A  22D6  160A  118A  	fcall	_i2c_read
  8170     13B7  00F5               	movwf	eeprom_at24c04_randon_read@received_data
  8171     13B8                     l4553:
  8172                           
  8173                           ;at24c04.c: 22:     i2c_stop();
  8174     13B8  160A  118A  21AE  160A  118A  	fcall	_i2c_stop
  8175     13BD                     l4555:
  8176                           
  8177                           ;at24c04.c: 24:     return received_data;
  8178     13BD  0875               	movf	eeprom_at24c04_randon_read@received_data,w
  8179     13BE                     l574:
  8180     13BE  0008               	return
  8181     13BF                     __end_of_eeprom_at24c04_randon_read:
  8182                           
  8183                           	psect	text26
  8184     1283                     __ptext26:	
  8185 ;; *************** function ___bmul *****************
  8186 ;; Defined at:
  8187 ;;		line 4 in file "C:\Program Files\Microchip\xc8\v2.40\pic\sources\c90\common\Umul8.c"
  8188 ;; Parameters:    Size  Location     Type
  8189 ;;  multiplier      1    wreg     unsigned char 
  8190 ;;  multiplicand    1    2[COMMON] unsigned char 
  8191 ;; Auto vars:     Size  Location     Type
  8192 ;;  multiplier      1    5[COMMON] unsigned char 
  8193 ;;  product         1    4[COMMON] unsigned char 
  8194 ;; Return value:  Size  Location     Type
  8195 ;;                  1    wreg      unsigned char 
  8196 ;; Registers used:
  8197 ;;		wreg, status,2, status,0
  8198 ;; Tracked objects:
  8199 ;;		On entry : 0/0
  8200 ;;		On exit  : 0/0
  8201 ;;		Unchanged: 0/0
  8202 ;; Data sizes:     COMMON   BANK0   BANK1   BANK3   BANK2
  8203 ;;      Params:         1       0       0       0       0
  8204 ;;      Locals:         2       0       0       0       0
  8205 ;;      Temps:          1       0       0       0       0
  8206 ;;      Totals:         4       0       0       0       0
  8207 ;;Total ram usage:        4 bytes
  8208 ;; Hardware stack levels used: 1
  8209 ;; Hardware stack levels required when called: 1
  8210 ;; This function calls:
  8211 ;;		Nothing
  8212 ;; This function is called by:
  8213 ;;		_log_event
  8214 ;;		_view_log
  8215 ;;		_set_time
  8216 ;;		_download_log
  8217 ;; This function uses a non-reentrant model
  8218 ;;
  8219                           
  8220     1283                     ___bmul:	
  8221                           ;psect for function ___bmul
  8222                           
  8223                           
  8224                           ;incstack = 0
  8225                           ; Regs used in ___bmul: [wreg+status,2+status,0]
  8226                           ;___bmul@multiplier stored from wreg
  8227     1283  00F5               	movwf	___bmul@multiplier
  8228     1284                     l4419:
  8229     1284  01F4               	clrf	___bmul@product
  8230     1285                     l4421:
  8231     1285  1C75               	btfss	___bmul@multiplier,0
  8232     1286  2A88               	goto	u4331
  8233     1287  2A89               	goto	u4330
  8234     1288                     u4331:
  8235     1288  2A8D               	goto	l4425
  8236     1289                     u4330:
  8237     1289                     l4423:
  8238     1289  0872               	movf	___bmul@multiplicand,w
  8239     128A  00F3               	movwf	??___bmul
  8240     128B  0873               	movf	??___bmul,w
  8241     128C  07F4               	addwf	___bmul@product,f
  8242     128D                     l4425:
  8243     128D  1003               	clrc
  8244     128E  0DF2               	rlf	___bmul@multiplicand,f
  8245     128F                     l4427:
  8246     128F  1003               	clrc
  8247     1290  0CF5               	rrf	___bmul@multiplier,f
  8248     1291  0875               	movf	___bmul@multiplier,w
  8249     1292  1D03               	btfss	3,2
  8250     1293  2A95               	goto	u4341
  8251     1294  2A96               	goto	u4340
  8252     1295                     u4341:
  8253     1295  2A85               	goto	l4421
  8254     1296                     u4340:
  8255     1296                     l4429:
  8256     1296  0874               	movf	___bmul@product,w
  8257     1297                     l772:
  8258     1297  0008               	return
  8259     1298                     __end_of___bmul:
  8260                           
  8261                           	psect	text27
  8262     0881                     __ptext27:	
  8263 ;; *************** function _display_dashboard *****************
  8264 ;; Defined at:
  8265 ;;		line 76 in file "cbb.c"
  8266 ;; Parameters:    Size  Location     Type
  8267 ;;  event           1    wreg     PTR unsigned char 
  8268 ;;		 -> main@event(3), 
  8269 ;;  speed           1    5[BANK0 ] unsigned char 
  8270 ;; Auto vars:     Size  Location     Type
  8271 ;;  event           1    8[BANK0 ] PTR unsigned char 
  8272 ;;		 -> main@event(3), 
  8273 ;; Return value:  Size  Location     Type
  8274 ;;                  1    wreg      void 
  8275 ;; Registers used:
  8276 ;;		wreg, fsr0l, fsr0h, status,2, status,0, btemp+1, pclath, cstack
  8277 ;; Tracked objects:
  8278 ;;		On entry : 0/0
  8279 ;;		On exit  : 0/0
  8280 ;;		Unchanged: 0/0
  8281 ;; Data sizes:     COMMON   BANK0   BANK1   BANK3   BANK2
  8282 ;;      Params:         0       1       0       0       0
  8283 ;;      Locals:         0       1       0       0       0
  8284 ;;      Temps:          0       2       0       0       0
  8285 ;;      Totals:         0       4       0       0       0
  8286 ;;Total ram usage:        4 bytes
  8287 ;; Hardware stack levels used: 1
  8288 ;; Hardware stack levels required when called: 7
  8289 ;; This function calls:
  8290 ;;		___awdiv
  8291 ;;		___awmod
  8292 ;;		_clcd_print
  8293 ;;		_clcd_putch
  8294 ;;		_display_time
  8295 ;;		_strcmp
  8296 ;; This function is called by:
  8297 ;;		_main
  8298 ;; This function uses a non-reentrant model
  8299 ;;
  8300                           
  8301     0881                     _display_dashboard:	
  8302                           ;psect for function _display_dashboard
  8303                           
  8304                           
  8305                           ;incstack = 0
  8306                           ; Regs used in _display_dashboard: [wreg-fsr0h+status,2+status,0+btemp+1+pclath+cstack]
  8307                           ;display_dashboard@event stored from wreg
  8308     0881  1283               	bcf	3,5	;RP0=0, select bank0
  8309     0882  1303               	bcf	3,6	;RP1=0, select bank0
  8310     0883  00A8               	movwf	display_dashboard@event
  8311     0884                     l4773:
  8312                           
  8313                           ;cbb.c: 76: void display_dashboard(char *event, char speed);cbb.c: 77: {;cbb.c: 78:     
      +                          clcd_print("  TIME     E  SP",(0x80 + 0));
  8314     0884  3012               	movlw	low (STR_20| (0+32768))
  8315     0885  00F6               	movwf	clcd_print@str
  8316     0886  3090               	movlw	high (STR_20| (0+32768))
  8317     0887  00F7               	movwf	clcd_print@str+1
  8318     0888  3080               	movlw	128
  8319     0889  00F8               	movwf	clcd_print@addr
  8320     088A  160A  118A  23BF  120A  158A  	fcall	_clcd_print
  8321                           
  8322                           ;cbb.c: 79:     clcd_print(event,(0xC0 + 11));
  8323     088F  1283               	bcf	3,5	;RP0=0, select bank0
  8324     0890  1303               	bcf	3,6	;RP1=0, select bank0
  8325     0891  0828               	movf	display_dashboard@event,w
  8326     0892  00F6               	movwf	clcd_print@str
  8327     0893  3001               	movlw	1
  8328     0894  00F7               	movwf	clcd_print@str+1
  8329     0895  30CB               	movlw	203
  8330     0896  00F8               	movwf	clcd_print@addr
  8331     0897  160A  118A  23BF  120A  158A  	fcall	_clcd_print
  8332                           
  8333                           ;cbb.c: 81:     if(strcmp(event,"ON") == 0)
  8334     089C  3053               	movlw	low (STR_21| (0+32768))
  8335     089D  00F2               	movwf	strcmp@s2
  8336     089E  3091               	movlw	high (STR_21| (0+32768))
  8337     089F  00F3               	movwf	strcmp@s2+1
  8338     08A0  1283               	bcf	3,5	;RP0=0, select bank0
  8339     08A1  1303               	bcf	3,6	;RP1=0, select bank0
  8340     08A2  0828               	movf	display_dashboard@event,w
  8341     08A3  160A  118A  244E  120A  158A  	fcall	_strcmp
  8342     08A8  0872               	movf	?_strcmp,w
  8343     08A9  0473               	iorwf	?_strcmp+1,w
  8344     08AA  1D03               	btfss	3,2
  8345     08AB  28AD               	goto	u4901
  8346     08AC  28AE               	goto	u4900
  8347     08AD                     u4901:
  8348     08AD  28B1               	goto	l4777
  8349     08AE                     u4900:
  8350     08AE                     l4775:
  8351                           
  8352                           ;cbb.c: 82:     {;cbb.c: 83:         speed = 0;
  8353     08AE  1283               	bcf	3,5	;RP0=0, select bank0
  8354     08AF  1303               	bcf	3,6	;RP1=0, select bank0
  8355     08B0  01A5               	clrf	display_dashboard@speed
  8356     08B1                     l4777:
  8357                           
  8358                           ;cbb.c: 85:     clcd_putch(speed/10 + '0',(0xC0 + 14));
  8359     08B1  30CE               	movlw	206
  8360     08B2  00F9               	movwf	clcd_putch@addr
  8361     08B3  300A               	movlw	10
  8362     08B4  00F2               	movwf	___awdiv@divisor
  8363     08B5  3000               	movlw	0
  8364     08B6  00F3               	movwf	___awdiv@divisor+1
  8365     08B7  1283               	bcf	3,5	;RP0=0, select bank0
  8366     08B8  1303               	bcf	3,6	;RP1=0, select bank0
  8367     08B9  0825               	movf	display_dashboard@speed,w
  8368     08BA  00A6               	movwf	??_display_dashboard
  8369     08BB  01A7               	clrf	??_display_dashboard+1
  8370     08BC  0826               	movf	??_display_dashboard,w
  8371     08BD  00F4               	movwf	___awdiv@dividend
  8372     08BE  0827               	movf	??_display_dashboard+1,w
  8373     08BF  00F5               	movwf	___awdiv@dividend+1
  8374     08C0  120A  158A  2018  120A  158A  	fcall	___awdiv
  8375     08C5  0872               	movf	?___awdiv,w
  8376     08C6  3E30               	addlw	48
  8377     08C7  160A  118A  226E  120A  158A  	fcall	_clcd_putch
  8378     08CC                     l4779:
  8379                           
  8380                           ;cbb.c: 86:     clcd_putch(speed%10 + '0',(0xC0 + 15));
  8381     08CC  30CF               	movlw	207
  8382     08CD  00F9               	movwf	clcd_putch@addr
  8383     08CE  300A               	movlw	10
  8384     08CF  00F2               	movwf	___awmod@divisor
  8385     08D0  3000               	movlw	0
  8386     08D1  00F3               	movwf	___awmod@divisor+1
  8387     08D2  1283               	bcf	3,5	;RP0=0, select bank0
  8388     08D3  1303               	bcf	3,6	;RP1=0, select bank0
  8389     08D4  0825               	movf	display_dashboard@speed,w
  8390     08D5  00A6               	movwf	??_display_dashboard
  8391     08D6  01A7               	clrf	??_display_dashboard+1
  8392     08D7  0826               	movf	??_display_dashboard,w
  8393     08D8  00F4               	movwf	___awmod@dividend
  8394     08D9  0827               	movf	??_display_dashboard+1,w
  8395     08DA  00F5               	movwf	___awmod@dividend+1
  8396     08DB  160A  118A  273F  120A  158A  	fcall	___awmod
  8397     08E0  0872               	movf	?___awmod,w
  8398     08E1  3E30               	addlw	48
  8399     08E2  160A  118A  226E  120A  158A  	fcall	_clcd_putch
  8400     08E7                     l4781:
  8401                           
  8402                           ;cbb.c: 87:     display_time();
  8403     08E7  160A  118A  263E  120A  158A  	fcall	_display_time
  8404     08EC                     l376:
  8405     08EC  0008               	return
  8406     08ED                     __end_of_display_dashboard:
  8407                           
  8408                           	psect	text28
  8409     144E                     __ptext28:	
  8410 ;; *************** function _strcmp *****************
  8411 ;; Defined at:
  8412 ;;		line 33 in file "C:\Program Files\Microchip\xc8\v2.40\pic\sources\c90\common\strcmp.c"
  8413 ;; Parameters:    Size  Location     Type
  8414 ;;  s1              1    wreg     PTR const unsigned char 
  8415 ;;		 -> main@event(3), 
  8416 ;;  s2              2    2[COMMON] PTR const unsigned char 
  8417 ;;		 -> STR_21(3), 
  8418 ;; Auto vars:     Size  Location     Type
  8419 ;;  s1              1    7[COMMON] PTR const unsigned char 
  8420 ;;		 -> main@event(3), 
  8421 ;;  r               1    6[COMMON] char 
  8422 ;; Return value:  Size  Location     Type
  8423 ;;                  2    2[COMMON] int 
  8424 ;; Registers used:
  8425 ;;		wreg, fsr0l, fsr0h, status,2, status,0, btemp+1, pclath
  8426 ;; Tracked objects:
  8427 ;;		On entry : 0/0
  8428 ;;		On exit  : 0/0
  8429 ;;		Unchanged: 0/0
  8430 ;; Data sizes:     COMMON   BANK0   BANK1   BANK3   BANK2
  8431 ;;      Params:         2       0       0       0       0
  8432 ;;      Locals:         2       0       0       0       0
  8433 ;;      Temps:          2       0       0       0       0
  8434 ;;      Totals:         6       0       0       0       0
  8435 ;;Total ram usage:        6 bytes
  8436 ;; Hardware stack levels used: 2
  8437 ;; Hardware stack levels required when called: 1
  8438 ;; This function calls:
  8439 ;;		Nothing
  8440 ;; This function is called by:
  8441 ;;		_display_dashboard
  8442 ;; This function uses a non-reentrant model
  8443 ;;
  8444                           
  8445     144E                     _strcmp:	
  8446                           ;psect for function _strcmp
  8447                           
  8448                           
  8449                           ;incstack = 0
  8450                           ; Regs used in _strcmp: [wreg-fsr0h+status,2+status,0+btemp+1+pclath]
  8451                           ;strcmp@s1 stored from wreg
  8452     144E  00F7               	movwf	strcmp@s1
  8453     144F                     l4509:
  8454     144F  2C5A               	goto	l4513
  8455     1450                     l4511:
  8456     1450  3001               	movlw	1
  8457     1451  00F4               	movwf	??_strcmp
  8458     1452  0874               	movf	??_strcmp,w
  8459     1453  07F7               	addwf	strcmp@s1,f
  8460     1454  3001               	movlw	1
  8461     1455  07F2               	addwf	strcmp@s2,f
  8462     1456  1803               	skipnc
  8463     1457  0AF3               	incf	strcmp@s2+1,f
  8464     1458  3000               	movlw	0
  8465     1459  07F3               	addwf	strcmp@s2+1,f
  8466     145A                     l4513:
  8467     145A  0873               	movf	strcmp@s2+1,w
  8468     145B  1283               	bcf	3,5	;RP0=0, select bank0
  8469     145C  1303               	bcf	3,6	;RP1=0, select bank0
  8470     145D  00FF               	movwf	btemp+1
  8471     145E  0872               	movf	strcmp@s2,w
  8472     145F  0084               	movwf	4
  8473     1460  160A  118A  216E  160A  118A  	fcall	stringtab
  8474     1465  00F4               	movwf	??_strcmp
  8475     1466  0877               	movf	strcmp@s1,w
  8476     1467  0084               	movwf	4
  8477     1468  1783               	bsf	3,7	;select IRP bank2
  8478     1469  0800               	movf	0,w
  8479     146A  00F5               	movwf	??_strcmp+1
  8480     146B  0874               	movf	??_strcmp,w
  8481     146C  0275               	subwf	??_strcmp+1,w
  8482     146D  00F6               	movwf	strcmp@r
  8483     146E  0876               	movf	strcmp@r,w
  8484     146F  1D03               	btfss	3,2
  8485     1470  2C72               	goto	u4451
  8486     1471  2C73               	goto	u4450
  8487     1472                     u4451:
  8488     1472  2C7A               	goto	l4517
  8489     1473                     u4450:
  8490     1473                     l4515:
  8491     1473  0877               	movf	strcmp@s1,w
  8492     1474  0084               	movwf	4
  8493     1475  0800               	movf	0,w
  8494     1476  1D03               	btfss	3,2
  8495     1477  2C79               	goto	u4461
  8496     1478  2C7A               	goto	u4460
  8497     1479                     u4461:
  8498     1479  2C50               	goto	l4511
  8499     147A                     u4460:
  8500     147A                     l4517:
  8501     147A  0876               	movf	strcmp@r,w
  8502     147B  00F2               	movwf	?_strcmp
  8503     147C  01F3               	clrf	?_strcmp+1
  8504     147D  1BF2               	btfsc	?_strcmp,7
  8505     147E  03F3               	decf	?_strcmp+1,f
  8506     147F                     l1202:
  8507     147F  0008               	return
  8508     1480                     __end_of_strcmp:
  8509                           
  8510                           	psect	text29
  8511     163E                     __ptext29:	
  8512 ;; *************** function _display_time *****************
  8513 ;; Defined at:
  8514 ;;		line 63 in file "cbb.c"
  8515 ;; Parameters:    Size  Location     Type
  8516 ;;		None
  8517 ;; Auto vars:     Size  Location     Type
  8518 ;;		None
  8519 ;; Return value:  Size  Location     Type
  8520 ;;                  1    wreg      void 
  8521 ;; Registers used:
  8522 ;;		wreg, status,2, status,0, pclath, cstack
  8523 ;; Tracked objects:
  8524 ;;		On entry : 0/0
  8525 ;;		On exit  : 0/0
  8526 ;;		Unchanged: 0/0
  8527 ;; Data sizes:     COMMON   BANK0   BANK1   BANK3   BANK2
  8528 ;;      Params:         0       0       0       0       0
  8529 ;;      Locals:         0       0       0       0       0
  8530 ;;      Temps:          0       0       0       0       0
  8531 ;;      Totals:         0       0       0       0       0
  8532 ;;Total ram usage:        0 bytes
  8533 ;; Hardware stack levels used: 1
  8534 ;; Hardware stack levels required when called: 6
  8535 ;; This function calls:
  8536 ;;		_clcd_putch
  8537 ;;		_get_time
  8538 ;; This function is called by:
  8539 ;;		_display_dashboard
  8540 ;; This function uses a non-reentrant model
  8541 ;;
  8542                           
  8543     163E                     _display_time:	
  8544                           ;psect for function _display_time
  8545                           
  8546     163E                     l4507:	
  8547                           ;incstack = 0
  8548                           ; Regs used in _display_time: [wreg+status,2+status,0+pclath+cstack]
  8549                           
  8550                           
  8551                           ;cbb.c: 65:     get_time();
  8552     163E  120A  158A  2174  160A  118A  	fcall	_get_time
  8553                           
  8554                           ;cbb.c: 66:     clcd_putch(time[0],(0xC0 + 0));
  8555     1643  30C0               	movlw	192
  8556     1644  00F9               	movwf	clcd_putch@addr
  8557     1645  1683               	bsf	3,5	;RP0=1, select bank1
  8558     1646  1303               	bcf	3,6	;RP1=0, select bank1
  8559     1647  0854               	movf	_time^(0+128),w
  8560     1648  160A  118A  226E  160A  118A  	fcall	_clcd_putch
  8561                           
  8562                           ;cbb.c: 67:     clcd_putch(time[1],(0xC0 + 1));
  8563     164D  30C1               	movlw	193
  8564     164E  00F9               	movwf	clcd_putch@addr
  8565     164F  1683               	bsf	3,5	;RP0=1, select bank1
  8566     1650  1303               	bcf	3,6	;RP1=0, select bank1
  8567     1651  0855               	movf	(_time^(0+128)+1),w
  8568     1652  160A  118A  226E  160A  118A  	fcall	_clcd_putch
  8569                           
  8570                           ;cbb.c: 68:     clcd_putch(':',(0xC0 + 2));
  8571     1657  30C2               	movlw	194
  8572     1658  00F9               	movwf	clcd_putch@addr
  8573     1659  303A               	movlw	58
  8574     165A  160A  118A  226E  160A  118A  	fcall	_clcd_putch
  8575                           
  8576                           ;cbb.c: 69:     clcd_putch(time[2],(0xC0 + 3));
  8577     165F  30C3               	movlw	195
  8578     1660  00F9               	movwf	clcd_putch@addr
  8579     1661  1683               	bsf	3,5	;RP0=1, select bank1
  8580     1662  1303               	bcf	3,6	;RP1=0, select bank1
  8581     1663  0856               	movf	(_time^(0+128)+2),w
  8582     1664  160A  118A  226E  160A  118A  	fcall	_clcd_putch
  8583                           
  8584                           ;cbb.c: 70:     clcd_putch(time[3],(0xC0 + 4));
  8585     1669  30C4               	movlw	196
  8586     166A  00F9               	movwf	clcd_putch@addr
  8587     166B  1683               	bsf	3,5	;RP0=1, select bank1
  8588     166C  1303               	bcf	3,6	;RP1=0, select bank1
  8589     166D  0857               	movf	(_time^(0+128)+3),w
  8590     166E  160A  118A  226E  160A  118A  	fcall	_clcd_putch
  8591                           
  8592                           ;cbb.c: 71:     clcd_putch(':',(0xC0 + 5));
  8593     1673  30C5               	movlw	197
  8594     1674  00F9               	movwf	clcd_putch@addr
  8595     1675  303A               	movlw	58
  8596     1676  160A  118A  226E  160A  118A  	fcall	_clcd_putch
  8597                           
  8598                           ;cbb.c: 72:     clcd_putch(time[4],(0xC0 + 6));
  8599     167B  30C6               	movlw	198
  8600     167C  00F9               	movwf	clcd_putch@addr
  8601     167D  1683               	bsf	3,5	;RP0=1, select bank1
  8602     167E  1303               	bcf	3,6	;RP1=0, select bank1
  8603     167F  0858               	movf	(_time^(0+128)+4),w
  8604     1680  160A  118A  226E  160A  118A  	fcall	_clcd_putch
  8605                           
  8606                           ;cbb.c: 73:     clcd_putch(time[5],(0xC0 + 7));
  8607     1685  30C7               	movlw	199
  8608     1686  00F9               	movwf	clcd_putch@addr
  8609     1687  1683               	bsf	3,5	;RP0=1, select bank1
  8610     1688  1303               	bcf	3,6	;RP1=0, select bank1
  8611     1689  0859               	movf	(_time^(0+128)+5),w
  8612     168A  160A  118A  226E  160A  118A  	fcall	_clcd_putch
  8613     168F                     l372:
  8614     168F  0008               	return
  8615     1690                     __end_of_display_time:
  8616                           
  8617                           	psect	text30
  8618     0974                     __ptext30:	
  8619 ;; *************** function _get_time *****************
  8620 ;; Defined at:
  8621 ;;		line 25 in file "cbb.c"
  8622 ;; Parameters:    Size  Location     Type
  8623 ;;		None
  8624 ;; Auto vars:     Size  Location     Type
  8625 ;;		None
  8626 ;; Return value:  Size  Location     Type
  8627 ;;                  1    wreg      void 
  8628 ;; Registers used:
  8629 ;;		wreg, status,2, status,0, pclath, cstack
  8630 ;; Tracked objects:
  8631 ;;		On entry : 0/0
  8632 ;;		On exit  : 0/0
  8633 ;;		Unchanged: 0/0
  8634 ;; Data sizes:     COMMON   BANK0   BANK1   BANK3   BANK2
  8635 ;;      Params:         0       0       0       0       0
  8636 ;;      Locals:         0       0       0       0       0
  8637 ;;      Temps:          1       0       0       0       0
  8638 ;;      Totals:         1       0       0       0       0
  8639 ;;Total ram usage:        1 bytes
  8640 ;; Hardware stack levels used: 1
  8641 ;; Hardware stack levels required when called: 5
  8642 ;; This function calls:
  8643 ;;		_read_ds1307
  8644 ;; This function is called by:
  8645 ;;		_display_time
  8646 ;;		_set_time
  8647 ;;		_log_car_event
  8648 ;; This function uses a non-reentrant model
  8649 ;;
  8650                           
  8651     0974                     _get_time:	
  8652                           ;psect for function _get_time
  8653                           
  8654     0974                     l4387:	
  8655                           ;incstack = 0
  8656                           ; Regs used in _get_time: [wreg+status,2+status,0+pclath+cstack]
  8657                           
  8658                           
  8659                           ;cbb.c: 27:     clock_reg[0] = read_ds1307(0x02);
  8660     0974  3002               	movlw	2
  8661     0975  160A  118A  2369  120A  158A  	fcall	_read_ds1307
  8662     097A  1283               	bcf	3,5	;RP0=0, select bank0
  8663     097B  1303               	bcf	3,6	;RP1=0, select bank0
  8664     097C  00BC               	movwf	_clock_reg
  8665                           
  8666                           ;cbb.c: 28:     clock_reg[1] = read_ds1307(0x01);
  8667     097D  3001               	movlw	1
  8668     097E  160A  118A  2369  120A  158A  	fcall	_read_ds1307
  8669     0983  1283               	bcf	3,5	;RP0=0, select bank0
  8670     0984  1303               	bcf	3,6	;RP1=0, select bank0
  8671     0985  00BD               	movwf	_clock_reg+1
  8672                           
  8673                           ;cbb.c: 29:     clock_reg[2] = read_ds1307(0x00);
  8674     0986  3000               	movlw	0
  8675     0987  160A  118A  2369  120A  158A  	fcall	_read_ds1307
  8676     098C  1283               	bcf	3,5	;RP0=0, select bank0
  8677     098D  1303               	bcf	3,6	;RP1=0, select bank0
  8678     098E  00BE               	movwf	_clock_reg+2
  8679     098F                     l4389:
  8680                           
  8681                           ;cbb.c: 33:     time[0] = ((clock_reg[0] >> 4) & 0x03) + '0';
  8682     098F  083C               	movf	_clock_reg,w
  8683     0990  00F6               	movwf	??_get_time
  8684     0991  3004               	movlw	4
  8685     0992                     u4265:
  8686     0992  1003               	clrc
  8687     0993  0CF6               	rrf	??_get_time,f
  8688     0994  3EFF               	addlw	-1
  8689     0995  1D03               	skipz
  8690     0996  2992               	goto	u4265
  8691     0997  0876               	movf	??_get_time,w
  8692     0998  3903               	andlw	3
  8693     0999  3E30               	addlw	48
  8694     099A  1683               	bsf	3,5	;RP0=1, select bank1
  8695     099B  1303               	bcf	3,6	;RP1=0, select bank1
  8696     099C  00D4               	movwf	_time^(0+128)
  8697     099D                     l4391:
  8698                           
  8699                           ;cbb.c: 34:     time[1] = (clock_reg[0] & 0x0F) + '0';
  8700     099D  1283               	bcf	3,5	;RP0=0, select bank0
  8701     099E  1303               	bcf	3,6	;RP1=0, select bank0
  8702     099F  083C               	movf	_clock_reg,w
  8703     09A0  390F               	andlw	15
  8704     09A1  3E30               	addlw	48
  8705     09A2  1683               	bsf	3,5	;RP0=1, select bank1
  8706     09A3  1303               	bcf	3,6	;RP1=0, select bank1
  8707     09A4  00D5               	movwf	(_time^(0+128)+1)
  8708     09A5                     l4393:
  8709                           
  8710                           ;cbb.c: 38:     time[2] = ((clock_reg[1] >> 4) & 0x07) + '0';
  8711     09A5  1283               	bcf	3,5	;RP0=0, select bank0
  8712     09A6  1303               	bcf	3,6	;RP1=0, select bank0
  8713     09A7  083D               	movf	_clock_reg+1,w
  8714     09A8  00F6               	movwf	??_get_time
  8715     09A9  3004               	movlw	4
  8716     09AA                     u4275:
  8717     09AA  1003               	clrc
  8718     09AB  0CF6               	rrf	??_get_time,f
  8719     09AC  3EFF               	addlw	-1
  8720     09AD  1D03               	skipz
  8721     09AE  29AA               	goto	u4275
  8722     09AF  0876               	movf	??_get_time,w
  8723     09B0  3907               	andlw	7
  8724     09B1  3E30               	addlw	48
  8725     09B2  1683               	bsf	3,5	;RP0=1, select bank1
  8726     09B3  1303               	bcf	3,6	;RP1=0, select bank1
  8727     09B4  00D6               	movwf	(_time^(0+128)+2)
  8728     09B5                     l4395:
  8729                           
  8730                           ;cbb.c: 39:     time[3] = (clock_reg[1] & 0x0F) + '0';
  8731     09B5  1283               	bcf	3,5	;RP0=0, select bank0
  8732     09B6  1303               	bcf	3,6	;RP1=0, select bank0
  8733     09B7  083D               	movf	_clock_reg+1,w
  8734     09B8  390F               	andlw	15
  8735     09B9  3E30               	addlw	48
  8736     09BA  1683               	bsf	3,5	;RP0=1, select bank1
  8737     09BB  1303               	bcf	3,6	;RP1=0, select bank1
  8738     09BC  00D7               	movwf	(_time^(0+128)+3)
  8739     09BD                     l4397:
  8740                           
  8741                           ;cbb.c: 43:     time[4] = ((clock_reg[2] >> 4) & 0x07) + '0';
  8742     09BD  1283               	bcf	3,5	;RP0=0, select bank0
  8743     09BE  1303               	bcf	3,6	;RP1=0, select bank0
  8744     09BF  083E               	movf	_clock_reg+2,w
  8745     09C0  00F6               	movwf	??_get_time
  8746     09C1  3004               	movlw	4
  8747     09C2                     u4285:
  8748     09C2  1003               	clrc
  8749     09C3  0CF6               	rrf	??_get_time,f
  8750     09C4  3EFF               	addlw	-1
  8751     09C5  1D03               	skipz
  8752     09C6  29C2               	goto	u4285
  8753     09C7  0876               	movf	??_get_time,w
  8754     09C8  3907               	andlw	7
  8755     09C9  3E30               	addlw	48
  8756     09CA  1683               	bsf	3,5	;RP0=1, select bank1
  8757     09CB  1303               	bcf	3,6	;RP1=0, select bank1
  8758     09CC  00D8               	movwf	(_time^(0+128)+4)
  8759     09CD                     l4399:
  8760                           
  8761                           ;cbb.c: 44:     time[5] = (clock_reg[2] & 0x0F) + '0';
  8762     09CD  1283               	bcf	3,5	;RP0=0, select bank0
  8763     09CE  1303               	bcf	3,6	;RP1=0, select bank0
  8764     09CF  083E               	movf	_clock_reg+2,w
  8765     09D0  390F               	andlw	15
  8766     09D1  3E30               	addlw	48
  8767     09D2  1683               	bsf	3,5	;RP0=1, select bank1
  8768     09D3  1303               	bcf	3,6	;RP1=0, select bank1
  8769     09D4  00D9               	movwf	(_time^(0+128)+5)
  8770     09D5                     l4401:
  8771                           
  8772                           ;cbb.c: 45:     time[6] = '\0';
  8773     09D5  01DA               	clrf	(_time^(0+128)+6)
  8774     09D6                     l4403:
  8775                           
  8776                           ;cbb.c: 47:      time1[0] = ((clock_reg[0] >> 4) & 0x03) + '0';
  8777     09D6  1283               	bcf	3,5	;RP0=0, select bank0
  8778     09D7  1303               	bcf	3,6	;RP1=0, select bank0
  8779     09D8  083C               	movf	_clock_reg,w
  8780     09D9  00F6               	movwf	??_get_time
  8781     09DA  3004               	movlw	4
  8782     09DB                     u4295:
  8783     09DB  1003               	clrc
  8784     09DC  0CF6               	rrf	??_get_time,f
  8785     09DD  3EFF               	addlw	-1
  8786     09DE  1D03               	skipz
  8787     09DF  29DB               	goto	u4295
  8788     09E0  0876               	movf	??_get_time,w
  8789     09E1  3903               	andlw	3
  8790     09E2  3E30               	addlw	48
  8791     09E3  1683               	bsf	3,5	;RP0=1, select bank1
  8792     09E4  1303               	bcf	3,6	;RP1=0, select bank1
  8793     09E5  00AA               	movwf	_time1^(0+128)
  8794     09E6                     l4405:
  8795                           
  8796                           ;cbb.c: 48:     time1[1] = (clock_reg[0] & 0x0F) + '0';
  8797     09E6  1283               	bcf	3,5	;RP0=0, select bank0
  8798     09E7  1303               	bcf	3,6	;RP1=0, select bank0
  8799     09E8  083C               	movf	_clock_reg,w
  8800     09E9  390F               	andlw	15
  8801     09EA  3E30               	addlw	48
  8802     09EB  1683               	bsf	3,5	;RP0=1, select bank1
  8803     09EC  1303               	bcf	3,6	;RP1=0, select bank1
  8804     09ED  00AB               	movwf	(_time1^(0+128)+1)
  8805     09EE                     l4407:
  8806                           
  8807                           ;cbb.c: 52:     time1[2] = ((clock_reg[1] >> 4) & 0x07) + '0';
  8808     09EE  1283               	bcf	3,5	;RP0=0, select bank0
  8809     09EF  1303               	bcf	3,6	;RP1=0, select bank0
  8810     09F0  083D               	movf	_clock_reg+1,w
  8811     09F1  00F6               	movwf	??_get_time
  8812     09F2  3004               	movlw	4
  8813     09F3                     u4305:
  8814     09F3  1003               	clrc
  8815     09F4  0CF6               	rrf	??_get_time,f
  8816     09F5  3EFF               	addlw	-1
  8817     09F6  1D03               	skipz
  8818     09F7  29F3               	goto	u4305
  8819     09F8  0876               	movf	??_get_time,w
  8820     09F9  3907               	andlw	7
  8821     09FA  3E30               	addlw	48
  8822     09FB  1683               	bsf	3,5	;RP0=1, select bank1
  8823     09FC  1303               	bcf	3,6	;RP1=0, select bank1
  8824     09FD  00AC               	movwf	(_time1^(0+128)+2)
  8825     09FE                     l4409:
  8826                           
  8827                           ;cbb.c: 53:     time1[3] = (clock_reg[1] & 0x0F) + '0';
  8828     09FE  1283               	bcf	3,5	;RP0=0, select bank0
  8829     09FF  1303               	bcf	3,6	;RP1=0, select bank0
  8830     0A00  083D               	movf	_clock_reg+1,w
  8831     0A01  390F               	andlw	15
  8832     0A02  3E30               	addlw	48
  8833     0A03  1683               	bsf	3,5	;RP0=1, select bank1
  8834     0A04  1303               	bcf	3,6	;RP1=0, select bank1
  8835     0A05  00AD               	movwf	(_time1^(0+128)+3)
  8836     0A06                     l4411:
  8837                           
  8838                           ;cbb.c: 57:     time1[4] = ((clock_reg[2] >> 4) & 0x07) + '0';
  8839     0A06  1283               	bcf	3,5	;RP0=0, select bank0
  8840     0A07  1303               	bcf	3,6	;RP1=0, select bank0
  8841     0A08  083E               	movf	_clock_reg+2,w
  8842     0A09  00F6               	movwf	??_get_time
  8843     0A0A  3004               	movlw	4
  8844     0A0B                     u4315:
  8845     0A0B  1003               	clrc
  8846     0A0C  0CF6               	rrf	??_get_time,f
  8847     0A0D  3EFF               	addlw	-1
  8848     0A0E  1D03               	skipz
  8849     0A0F  2A0B               	goto	u4315
  8850     0A10  0876               	movf	??_get_time,w
  8851     0A11  3907               	andlw	7
  8852     0A12  3E30               	addlw	48
  8853     0A13  1683               	bsf	3,5	;RP0=1, select bank1
  8854     0A14  1303               	bcf	3,6	;RP1=0, select bank1
  8855     0A15  00AE               	movwf	(_time1^(0+128)+4)
  8856     0A16                     l4413:
  8857                           
  8858                           ;cbb.c: 58:     time1[5] = (clock_reg[2] & 0x0F) + '0';
  8859     0A16  1283               	bcf	3,5	;RP0=0, select bank0
  8860     0A17  1303               	bcf	3,6	;RP1=0, select bank0
  8861     0A18  083E               	movf	_clock_reg+2,w
  8862     0A19  390F               	andlw	15
  8863     0A1A  3E30               	addlw	48
  8864     0A1B  1683               	bsf	3,5	;RP0=1, select bank1
  8865     0A1C  1303               	bcf	3,6	;RP1=0, select bank1
  8866     0A1D  00AF               	movwf	(_time1^(0+128)+5)
  8867     0A1E                     l4415:
  8868                           
  8869                           ;cbb.c: 59:     time1[6] = '\0';
  8870     0A1E  01B0               	clrf	(_time1^(0+128)+6)
  8871     0A1F                     l369:
  8872     0A1F  0008               	return
  8873     0A20                     __end_of_get_time:
  8874                           
  8875                           	psect	text31
  8876     1369                     __ptext31:	
  8877 ;; *************** function _read_ds1307 *****************
  8878 ;; Defined at:
  8879 ;;		line 14 in file "ds1307.c"
  8880 ;; Parameters:    Size  Location     Type
  8881 ;;  addr            1    wreg     unsigned char 
  8882 ;; Auto vars:     Size  Location     Type
  8883 ;;  addr            1    4[COMMON] unsigned char 
  8884 ;;  data            1    5[COMMON] unsigned char 
  8885 ;; Return value:  Size  Location     Type
  8886 ;;                  1    wreg      unsigned char 
  8887 ;; Registers used:
  8888 ;;		wreg, status,2, status,0, pclath, cstack
  8889 ;; Tracked objects:
  8890 ;;		On entry : 0/0
  8891 ;;		On exit  : 0/0
  8892 ;;		Unchanged: 0/0
  8893 ;; Data sizes:     COMMON   BANK0   BANK1   BANK3   BANK2
  8894 ;;      Params:         0       0       0       0       0
  8895 ;;      Locals:         2       0       0       0       0
  8896 ;;      Temps:          0       0       0       0       0
  8897 ;;      Totals:         2       0       0       0       0
  8898 ;;Total ram usage:        2 bytes
  8899 ;; Hardware stack levels used: 1
  8900 ;; Hardware stack levels required when called: 4
  8901 ;; This function calls:
  8902 ;;		_i2c_read
  8903 ;;		_i2c_rep_start
  8904 ;;		_i2c_start
  8905 ;;		_i2c_stop
  8906 ;;		_i2c_write
  8907 ;; This function is called by:
  8908 ;;		_init_ds1307
  8909 ;;		_get_time
  8910 ;; This function uses a non-reentrant model
  8911 ;;
  8912                           
  8913     1369                     _read_ds1307:	
  8914                           ;psect for function _read_ds1307
  8915                           
  8916                           
  8917                           ;incstack = 0
  8918                           ; Regs used in _read_ds1307: [wreg+status,2+status,0+pclath+cstack]
  8919                           ;read_ds1307@addr stored from wreg
  8920     1369  00F4               	movwf	read_ds1307@addr
  8921     136A                     l4343:
  8922                           
  8923                           ;ds1307.c: 14: unsigned char read_ds1307(unsigned char addr);ds1307.c: 15: {;ds1307.c: 1
      +                          6:     unsigned char data;;ds1307.c: 18:     i2c_start();
  8924     136A  160A  118A  21A5  160A  118A  	fcall	_i2c_start
  8925                           
  8926                           ;ds1307.c: 19:     i2c_write(0b11010000);
  8927     136F  30D0               	movlw	208
  8928     1370  160A  118A  21C1  160A  118A  	fcall	_i2c_write
  8929                           
  8930                           ;ds1307.c: 20:     i2c_write(addr);
  8931     1375  0874               	movf	read_ds1307@addr,w
  8932     1376  160A  118A  21C1  160A  118A  	fcall	_i2c_write
  8933                           
  8934                           ;ds1307.c: 21:     i2c_rep_start();
  8935     137B  160A  118A  21CC  160A  118A  	fcall	_i2c_rep_start
  8936                           
  8937                           ;ds1307.c: 22:     i2c_write(0b11010001);
  8938     1380  30D1               	movlw	209
  8939     1381  160A  118A  21C1  160A  118A  	fcall	_i2c_write
  8940                           
  8941                           ;ds1307.c: 23:     data = i2c_read(0);
  8942     1386  3000               	movlw	0
  8943     1387  160A  118A  22D6  160A  118A  	fcall	_i2c_read
  8944     138C  00F5               	movwf	read_ds1307@data
  8945                           
  8946                           ;ds1307.c: 24:     i2c_stop();
  8947     138D  160A  118A  21AE  160A  118A  	fcall	_i2c_stop
  8948     1392                     l4345:
  8949                           
  8950                           ;ds1307.c: 26:     return data;
  8951     1392  0875               	movf	read_ds1307@data,w
  8952     1393                     l206:
  8953     1393  0008               	return
  8954     1394                     __end_of_read_ds1307:
  8955                           
  8956                           	psect	text32
  8957     11CC                     __ptext32:	
  8958 ;; *************** function _i2c_rep_start *****************
  8959 ;; Defined at:
  8960 ;;		line 28 in file "i2c.c"
  8961 ;; Parameters:    Size  Location     Type
  8962 ;;		None
  8963 ;; Auto vars:     Size  Location     Type
  8964 ;;		None
  8965 ;; Return value:  Size  Location     Type
  8966 ;;                  1    wreg      void 
  8967 ;; Registers used:
  8968 ;;		wreg, status,2, status,0, pclath, cstack
  8969 ;; Tracked objects:
  8970 ;;		On entry : 0/0
  8971 ;;		On exit  : 0/0
  8972 ;;		Unchanged: 0/0
  8973 ;; Data sizes:     COMMON   BANK0   BANK1   BANK3   BANK2
  8974 ;;      Params:         0       0       0       0       0
  8975 ;;      Locals:         0       0       0       0       0
  8976 ;;      Temps:          0       0       0       0       0
  8977 ;;      Totals:         0       0       0       0       0
  8978 ;;Total ram usage:        0 bytes
  8979 ;; Hardware stack levels used: 1
  8980 ;; Hardware stack levels required when called: 3
  8981 ;; This function calls:
  8982 ;;		_i2c_start
  8983 ;;		_i2c_stop
  8984 ;; This function is called by:
  8985 ;;		_read_ds1307
  8986 ;;		_eeprom_at24c04_randon_read
  8987 ;; This function uses a non-reentrant model
  8988 ;;
  8989                           
  8990     11CC                     _i2c_rep_start:	
  8991                           ;psect for function _i2c_rep_start
  8992                           
  8993     11CC                     l4319:	
  8994                           ;incstack = 0
  8995                           ; Regs used in _i2c_rep_start: [wreg+status,2+status,0+pclath+cstack]
  8996                           
  8997                           
  8998                           ;i2c.c: 30:     i2c_stop();
  8999     11CC  160A  118A  21AE  160A  118A  	fcall	_i2c_stop
  9000                           
  9001                           ;i2c.c: 31:     i2c_start();
  9002     11D1  160A  118A  21A5  160A  118A  	fcall	_i2c_start
  9003     11D6                     l250:
  9004     11D6  0008               	return
  9005     11D7                     __end_of_i2c_rep_start:
  9006                           
  9007                           	psect	text33
  9008     12D6                     __ptext33:	
  9009 ;; *************** function _i2c_read *****************
  9010 ;; Defined at:
  9011 ;;		line 41 in file "i2c.c"
  9012 ;; Parameters:    Size  Location     Type
  9013 ;;  ack             1    wreg     unsigned char 
  9014 ;; Auto vars:     Size  Location     Type
  9015 ;;  ack             1    2[COMMON] unsigned char 
  9016 ;;  data            1    3[COMMON] unsigned char 
  9017 ;; Return value:  Size  Location     Type
  9018 ;;                  1    wreg      unsigned char 
  9019 ;; Registers used:
  9020 ;;		wreg, status,2, status,0, pclath, cstack
  9021 ;; Tracked objects:
  9022 ;;		On entry : 0/0
  9023 ;;		On exit  : 0/0
  9024 ;;		Unchanged: 0/0
  9025 ;; Data sizes:     COMMON   BANK0   BANK1   BANK3   BANK2
  9026 ;;      Params:         0       0       0       0       0
  9027 ;;      Locals:         2       0       0       0       0
  9028 ;;      Temps:          0       0       0       0       0
  9029 ;;      Totals:         2       0       0       0       0
  9030 ;;Total ram usage:        2 bytes
  9031 ;; Hardware stack levels used: 1
  9032 ;; Hardware stack levels required when called: 2
  9033 ;; This function calls:
  9034 ;;		_i2c_wait_for_idle
  9035 ;; This function is called by:
  9036 ;;		_read_ds1307
  9037 ;;		_eeprom_at24c04_randon_read
  9038 ;; This function uses a non-reentrant model
  9039 ;;
  9040                           
  9041     12D6                     _i2c_read:	
  9042                           ;psect for function _i2c_read
  9043                           
  9044                           
  9045                           ;incstack = 0
  9046                           ; Regs used in _i2c_read: [wreg+status,2+status,0+pclath+cstack]
  9047                           ;i2c_read@ack stored from wreg
  9048     12D6  00F2               	movwf	i2c_read@ack
  9049     12D7                     l4321:
  9050                           
  9051                           ;i2c.c: 41: unsigned char i2c_read(unsigned char ack);i2c.c: 42: {;i2c.c: 43:     unsign
      +                          ed char data;;i2c.c: 45:     i2c_wait_for_idle();
  9052     12D7  160A  118A  21ED  160A  118A  	fcall	_i2c_wait_for_idle
  9053     12DC                     l4323:
  9054                           
  9055                           ;i2c.c: 46:     RCEN = 1;
  9056     12DC  1683               	bsf	3,5	;RP0=1, select bank1
  9057     12DD  1303               	bcf	3,6	;RP1=0, select bank1
  9058     12DE  1591               	bsf	17,3	;volatile
  9059                           
  9060                           ;i2c.c: 48:     i2c_wait_for_idle();
  9061     12DF  160A  118A  21ED  160A  118A  	fcall	_i2c_wait_for_idle
  9062     12E4                     l4325:
  9063                           
  9064                           ;i2c.c: 49:     data = SSPBUF;
  9065     12E4  1283               	bcf	3,5	;RP0=0, select bank0
  9066     12E5  1303               	bcf	3,6	;RP1=0, select bank0
  9067     12E6  0813               	movf	19,w	;volatile
  9068     12E7  00F3               	movwf	i2c_read@data
  9069     12E8                     l4327:
  9070                           
  9071                           ;i2c.c: 51:     if (ack == 1)
  9072     12E8  0372               	decf	i2c_read@ack,w
  9073     12E9  1D03               	btfss	3,2
  9074     12EA  2AEC               	goto	u4221
  9075     12EB  2AED               	goto	u4220
  9076     12EC                     u4221:
  9077     12EC  2AF1               	goto	l256
  9078     12ED                     u4220:
  9079     12ED                     l4329:
  9080                           
  9081                           ;i2c.c: 52:     {;i2c.c: 53:         ACKDT = 1;
  9082     12ED  1683               	bsf	3,5	;RP0=1, select bank1
  9083     12EE  1303               	bcf	3,6	;RP1=0, select bank1
  9084     12EF  1691               	bsf	17,5	;volatile
  9085                           
  9086                           ;i2c.c: 54:     }
  9087     12F0  2AF4               	goto	l257
  9088     12F1                     l256:	
  9089                           ;i2c.c: 55:     else
  9090                           
  9091                           
  9092                           ;i2c.c: 56:     {;i2c.c: 57:         ACKDT = 0;
  9093     12F1  1683               	bsf	3,5	;RP0=1, select bank1
  9094     12F2  1303               	bcf	3,6	;RP1=0, select bank1
  9095     12F3  1291               	bcf	17,5	;volatile
  9096     12F4                     l257:	
  9097                           ;i2c.c: 58:     }
  9098                           
  9099                           
  9100                           ;i2c.c: 60:     ACKEN = 1;
  9101     12F4  1611               	bsf	17,4	;volatile
  9102     12F5                     l4331:
  9103                           
  9104                           ;i2c.c: 62:     return data;
  9105     12F5  0873               	movf	i2c_read@data,w
  9106     12F6                     l258:
  9107     12F6  0008               	return
  9108     12F7                     __end_of_i2c_read:
  9109                           
  9110                           	psect	text34
  9111     173F                     __ptext34:	
  9112 ;; *************** function ___awmod *****************
  9113 ;; Defined at:
  9114 ;;		line 5 in file "C:\Program Files\Microchip\xc8\v2.40\pic\sources\c90\common\awmod.c"
  9115 ;; Parameters:    Size  Location     Type
  9116 ;;  divisor         2    2[COMMON] int 
  9117 ;;  dividend        2    4[COMMON] int 
  9118 ;; Auto vars:     Size  Location     Type
  9119 ;;  sign            1    8[COMMON] unsigned char 
  9120 ;;  counter         1    7[COMMON] unsigned char 
  9121 ;; Return value:  Size  Location     Type
  9122 ;;                  2    2[COMMON] int 
  9123 ;; Registers used:
  9124 ;;		wreg, status,2, status,0
  9125 ;; Tracked objects:
  9126 ;;		On entry : 0/0
  9127 ;;		On exit  : 0/0
  9128 ;;		Unchanged: 0/0
  9129 ;; Data sizes:     COMMON   BANK0   BANK1   BANK3   BANK2
  9130 ;;      Params:         4       0       0       0       0
  9131 ;;      Locals:         2       0       0       0       0
  9132 ;;      Temps:          1       0       0       0       0
  9133 ;;      Totals:         7       0       0       0       0
  9134 ;;Total ram usage:        7 bytes
  9135 ;; Hardware stack levels used: 1
  9136 ;; Hardware stack levels required when called: 1
  9137 ;; This function calls:
  9138 ;;		Nothing
  9139 ;; This function is called by:
  9140 ;;		_display_dashboard
  9141 ;;		_view_log
  9142 ;;		_set_time
  9143 ;;		_download_log
  9144 ;;		_log_car_event
  9145 ;;		_login
  9146 ;; This function uses a non-reentrant model
  9147 ;;
  9148                           
  9149     173F                     ___awmod:	
  9150                           ;psect for function ___awmod
  9151                           
  9152     173F                     l4643:	
  9153                           ;incstack = 0
  9154                           ; Regs used in ___awmod: [wreg+status,2+status,0]
  9155                           
  9156     173F  01F8               	clrf	___awmod@sign
  9157     1740                     l4645:
  9158     1740  1FF5               	btfss	___awmod@dividend+1,7
  9159     1741  2F43               	goto	u4661
  9160     1742  2F44               	goto	u4660
  9161     1743                     u4661:
  9162     1743  2F4B               	goto	l4651
  9163     1744                     u4660:
  9164     1744                     l4647:
  9165     1744  09F4               	comf	___awmod@dividend,f
  9166     1745  09F5               	comf	___awmod@dividend+1,f
  9167     1746  0AF4               	incf	___awmod@dividend,f
  9168     1747  1903               	skipnz
  9169     1748  0AF5               	incf	___awmod@dividend+1,f
  9170     1749                     l4649:
  9171     1749  01F8               	clrf	___awmod@sign
  9172     174A  0AF8               	incf	___awmod@sign,f
  9173     174B                     l4651:
  9174     174B  1FF3               	btfss	___awmod@divisor+1,7
  9175     174C  2F4E               	goto	u4671
  9176     174D  2F4F               	goto	u4670
  9177     174E                     u4671:
  9178     174E  2F54               	goto	l4655
  9179     174F                     u4670:
  9180     174F                     l4653:
  9181     174F  09F2               	comf	___awmod@divisor,f
  9182     1750  09F3               	comf	___awmod@divisor+1,f
  9183     1751  0AF2               	incf	___awmod@divisor,f
  9184     1752  1903               	skipnz
  9185     1753  0AF3               	incf	___awmod@divisor+1,f
  9186     1754                     l4655:
  9187     1754  0872               	movf	___awmod@divisor,w
  9188     1755  0473               	iorwf	___awmod@divisor+1,w
  9189     1756  1903               	btfsc	3,2
  9190     1757  2F59               	goto	u4681
  9191     1758  2F5A               	goto	u4680
  9192     1759                     u4681:
  9193     1759  2F89               	goto	l4673
  9194     175A                     u4680:
  9195     175A                     l4657:
  9196     175A  01F7               	clrf	___awmod@counter
  9197     175B  0AF7               	incf	___awmod@counter,f
  9198     175C  2F68               	goto	l4663
  9199     175D                     l4659:
  9200     175D  3001               	movlw	1
  9201     175E                     u4695:
  9202     175E  1003               	clrc
  9203     175F  0DF2               	rlf	___awmod@divisor,f
  9204     1760  0DF3               	rlf	___awmod@divisor+1,f
  9205     1761  3EFF               	addlw	-1
  9206     1762  1D03               	skipz
  9207     1763  2F5E               	goto	u4695
  9208     1764                     l4661:
  9209     1764  3001               	movlw	1
  9210     1765  00F6               	movwf	??___awmod
  9211     1766  0876               	movf	??___awmod,w
  9212     1767  07F7               	addwf	___awmod@counter,f
  9213     1768                     l4663:
  9214     1768  1FF3               	btfss	___awmod@divisor+1,7
  9215     1769  2F6B               	goto	u4701
  9216     176A  2F6C               	goto	u4700
  9217     176B                     u4701:
  9218     176B  2F5D               	goto	l4659
  9219     176C                     u4700:
  9220     176C                     l4665:
  9221     176C  0873               	movf	___awmod@divisor+1,w
  9222     176D  0275               	subwf	___awmod@dividend+1,w
  9223     176E  1D03               	skipz
  9224     176F  2F72               	goto	u4715
  9225     1770  0872               	movf	___awmod@divisor,w
  9226     1771  0274               	subwf	___awmod@dividend,w
  9227     1772                     u4715:
  9228     1772  1C03               	skipc
  9229     1773  2F75               	goto	u4711
  9230     1774  2F76               	goto	u4710
  9231     1775                     u4711:
  9232     1775  2F7C               	goto	l4669
  9233     1776                     u4710:
  9234     1776                     l4667:
  9235     1776  0872               	movf	___awmod@divisor,w
  9236     1777  02F4               	subwf	___awmod@dividend,f
  9237     1778  0873               	movf	___awmod@divisor+1,w
  9238     1779  1C03               	skipc
  9239     177A  03F5               	decf	___awmod@dividend+1,f
  9240     177B  02F5               	subwf	___awmod@dividend+1,f
  9241     177C                     l4669:
  9242     177C  3001               	movlw	1
  9243     177D                     u4725:
  9244     177D  1003               	clrc
  9245     177E  0CF3               	rrf	___awmod@divisor+1,f
  9246     177F  0CF2               	rrf	___awmod@divisor,f
  9247     1780  3EFF               	addlw	-1
  9248     1781  1D03               	skipz
  9249     1782  2F7D               	goto	u4725
  9250     1783                     l4671:
  9251     1783  3001               	movlw	1
  9252     1784  02F7               	subwf	___awmod@counter,f
  9253     1785  1D03               	btfss	3,2
  9254     1786  2F88               	goto	u4731
  9255     1787  2F89               	goto	u4730
  9256     1788                     u4731:
  9257     1788  2F6C               	goto	l4665
  9258     1789                     u4730:
  9259     1789                     l4673:
  9260     1789  0878               	movf	___awmod@sign,w
  9261     178A  1903               	btfsc	3,2
  9262     178B  2F8D               	goto	u4741
  9263     178C  2F8E               	goto	u4740
  9264     178D                     u4741:
  9265     178D  2F93               	goto	l4677
  9266     178E                     u4740:
  9267     178E                     l4675:
  9268     178E  09F4               	comf	___awmod@dividend,f
  9269     178F  09F5               	comf	___awmod@dividend+1,f
  9270     1790  0AF4               	incf	___awmod@dividend,f
  9271     1791  1903               	skipnz
  9272     1792  0AF5               	incf	___awmod@dividend+1,f
  9273     1793                     l4677:
  9274     1793  0875               	movf	___awmod@dividend+1,w
  9275     1794  00F3               	movwf	?___awmod+1
  9276     1795  0874               	movf	___awmod@dividend,w
  9277     1796  00F2               	movwf	?___awmod
  9278     1797                     l912:
  9279     1797  0008               	return
  9280     1798                     __end_of___awmod:
  9281                           
  9282                           	psect	text35
  9283     0818                     __ptext35:	
  9284 ;; *************** function ___awdiv *****************
  9285 ;; Defined at:
  9286 ;;		line 5 in file "C:\Program Files\Microchip\xc8\v2.40\pic\sources\c90\common\awdiv.c"
  9287 ;; Parameters:    Size  Location     Type
  9288 ;;  divisor         2    2[COMMON] int 
  9289 ;;  dividend        2    4[COMMON] int 
  9290 ;; Auto vars:     Size  Location     Type
  9291 ;;  quotient        2    2[BANK0 ] int 
  9292 ;;  sign            1    1[BANK0 ] unsigned char 
  9293 ;;  counter         1    0[BANK0 ] unsigned char 
  9294 ;; Return value:  Size  Location     Type
  9295 ;;                  2    2[COMMON] int 
  9296 ;; Registers used:
  9297 ;;		wreg, status,2, status,0
  9298 ;; Tracked objects:
  9299 ;;		On entry : 0/0
  9300 ;;		On exit  : 0/0
  9301 ;;		Unchanged: 0/0
  9302 ;; Data sizes:     COMMON   BANK0   BANK1   BANK3   BANK2
  9303 ;;      Params:         4       0       0       0       0
  9304 ;;      Locals:         0       4       0       0       0
  9305 ;;      Temps:          1       0       0       0       0
  9306 ;;      Totals:         5       4       0       0       0
  9307 ;;Total ram usage:        9 bytes
  9308 ;; Hardware stack levels used: 1
  9309 ;; Hardware stack levels required when called: 1
  9310 ;; This function calls:
  9311 ;;		Nothing
  9312 ;; This function is called by:
  9313 ;;		_display_dashboard
  9314 ;;		_set_time
  9315 ;;		_log_car_event
  9316 ;;		_login
  9317 ;; This function uses a non-reentrant model
  9318 ;;
  9319                           
  9320     0818                     ___awdiv:	
  9321                           ;psect for function ___awdiv
  9322                           
  9323     0818                     l4599:	
  9324                           ;incstack = 0
  9325                           ; Regs used in ___awdiv: [wreg+status,2+status,0]
  9326                           
  9327     0818  1283               	bcf	3,5	;RP0=0, select bank0
  9328     0819  1303               	bcf	3,6	;RP1=0, select bank0
  9329     081A  01A1               	clrf	___awdiv@sign
  9330     081B                     l4601:
  9331     081B  1FF3               	btfss	___awdiv@divisor+1,7
  9332     081C  281E               	goto	u4561
  9333     081D  281F               	goto	u4560
  9334     081E                     u4561:
  9335     081E  2826               	goto	l4607
  9336     081F                     u4560:
  9337     081F                     l4603:
  9338     081F  09F2               	comf	___awdiv@divisor,f
  9339     0820  09F3               	comf	___awdiv@divisor+1,f
  9340     0821  0AF2               	incf	___awdiv@divisor,f
  9341     0822  1903               	skipnz
  9342     0823  0AF3               	incf	___awdiv@divisor+1,f
  9343     0824                     l4605:
  9344     0824  01A1               	clrf	___awdiv@sign
  9345     0825  0AA1               	incf	___awdiv@sign,f
  9346     0826                     l4607:
  9347     0826  1FF5               	btfss	___awdiv@dividend+1,7
  9348     0827  2829               	goto	u4571
  9349     0828  282A               	goto	u4570
  9350     0829                     u4571:
  9351     0829  2833               	goto	l4613
  9352     082A                     u4570:
  9353     082A                     l4609:
  9354     082A  09F4               	comf	___awdiv@dividend,f
  9355     082B  09F5               	comf	___awdiv@dividend+1,f
  9356     082C  0AF4               	incf	___awdiv@dividend,f
  9357     082D  1903               	skipnz
  9358     082E  0AF5               	incf	___awdiv@dividend+1,f
  9359     082F                     l4611:
  9360     082F  3001               	movlw	1
  9361     0830  00F6               	movwf	??___awdiv
  9362     0831  0876               	movf	??___awdiv,w
  9363     0832  06A1               	xorwf	___awdiv@sign,f
  9364     0833                     l4613:
  9365     0833  01A2               	clrf	___awdiv@quotient
  9366     0834  01A3               	clrf	___awdiv@quotient+1
  9367     0835                     l4615:
  9368     0835  0872               	movf	___awdiv@divisor,w
  9369     0836  0473               	iorwf	___awdiv@divisor+1,w
  9370     0837  1903               	btfsc	3,2
  9371     0838  283A               	goto	u4581
  9372     0839  283B               	goto	u4580
  9373     083A                     u4581:
  9374     083A  2872               	goto	l4635
  9375     083B                     u4580:
  9376     083B                     l4617:
  9377     083B  01A0               	clrf	___awdiv@counter
  9378     083C  0AA0               	incf	___awdiv@counter,f
  9379     083D  2849               	goto	l4623
  9380     083E                     l4619:
  9381     083E  3001               	movlw	1
  9382     083F                     u4595:
  9383     083F  1003               	clrc
  9384     0840  0DF2               	rlf	___awdiv@divisor,f
  9385     0841  0DF3               	rlf	___awdiv@divisor+1,f
  9386     0842  3EFF               	addlw	-1
  9387     0843  1D03               	skipz
  9388     0844  283F               	goto	u4595
  9389     0845                     l4621:
  9390     0845  3001               	movlw	1
  9391     0846  00F6               	movwf	??___awdiv
  9392     0847  0876               	movf	??___awdiv,w
  9393     0848  07A0               	addwf	___awdiv@counter,f
  9394     0849                     l4623:
  9395     0849  1FF3               	btfss	___awdiv@divisor+1,7
  9396     084A  284C               	goto	u4601
  9397     084B  284D               	goto	u4600
  9398     084C                     u4601:
  9399     084C  283E               	goto	l4619
  9400     084D                     u4600:
  9401     084D                     l4625:
  9402     084D  3001               	movlw	1
  9403     084E                     u4615:
  9404     084E  1003               	clrc
  9405     084F  0DA2               	rlf	___awdiv@quotient,f
  9406     0850  0DA3               	rlf	___awdiv@quotient+1,f
  9407     0851  3EFF               	addlw	-1
  9408     0852  1D03               	skipz
  9409     0853  284E               	goto	u4615
  9410     0854  0873               	movf	___awdiv@divisor+1,w
  9411     0855  0275               	subwf	___awdiv@dividend+1,w
  9412     0856  1D03               	skipz
  9413     0857  285A               	goto	u4625
  9414     0858  0872               	movf	___awdiv@divisor,w
  9415     0859  0274               	subwf	___awdiv@dividend,w
  9416     085A                     u4625:
  9417     085A  1C03               	skipc
  9418     085B  285D               	goto	u4621
  9419     085C  285E               	goto	u4620
  9420     085D                     u4621:
  9421     085D  2865               	goto	l4631
  9422     085E                     u4620:
  9423     085E                     l4627:
  9424     085E  0872               	movf	___awdiv@divisor,w
  9425     085F  02F4               	subwf	___awdiv@dividend,f
  9426     0860  0873               	movf	___awdiv@divisor+1,w
  9427     0861  1C03               	skipc
  9428     0862  03F5               	decf	___awdiv@dividend+1,f
  9429     0863  02F5               	subwf	___awdiv@dividend+1,f
  9430     0864                     l4629:
  9431     0864  1422               	bsf	___awdiv@quotient,0
  9432     0865                     l4631:
  9433     0865  3001               	movlw	1
  9434     0866                     u4635:
  9435     0866  1003               	clrc
  9436     0867  0CF3               	rrf	___awdiv@divisor+1,f
  9437     0868  0CF2               	rrf	___awdiv@divisor,f
  9438     0869  3EFF               	addlw	-1
  9439     086A  1D03               	skipz
  9440     086B  2866               	goto	u4635
  9441     086C                     l4633:
  9442     086C  3001               	movlw	1
  9443     086D  02A0               	subwf	___awdiv@counter,f
  9444     086E  1D03               	btfss	3,2
  9445     086F  2871               	goto	u4641
  9446     0870  2872               	goto	u4640
  9447     0871                     u4641:
  9448     0871  284D               	goto	l4625
  9449     0872                     u4640:
  9450     0872                     l4635:
  9451     0872  0821               	movf	___awdiv@sign,w
  9452     0873  1903               	btfsc	3,2
  9453     0874  2876               	goto	u4651
  9454     0875  2877               	goto	u4650
  9455     0876                     u4651:
  9456     0876  287C               	goto	l4639
  9457     0877                     u4650:
  9458     0877                     l4637:
  9459     0877  09A2               	comf	___awdiv@quotient,f
  9460     0878  09A3               	comf	___awdiv@quotient+1,f
  9461     0879  0AA2               	incf	___awdiv@quotient,f
  9462     087A  1903               	skipnz
  9463     087B  0AA3               	incf	___awdiv@quotient+1,f
  9464     087C                     l4639:
  9465     087C  0823               	movf	___awdiv@quotient+1,w
  9466     087D  00F3               	movwf	?___awdiv+1
  9467     087E  0822               	movf	___awdiv@quotient,w
  9468     087F  00F2               	movwf	?___awdiv
  9469     0880                     l899:
  9470     0880  0008               	return
  9471     0881                     __end_of___awdiv:
  9472                           
  9473                           	psect	text36
  9474     1225                     __ptext36:	
  9475 ;; *************** function _clear_log *****************
  9476 ;; Defined at:
  9477 ;;		line 311 in file "cbb.c"
  9478 ;; Parameters:    Size  Location     Type
  9479 ;;  reset_flag      1    wreg     unsigned char 
  9480 ;; Auto vars:     Size  Location     Type
  9481 ;;  reset_flag      1    2[COMMON] unsigned char 
  9482 ;; Return value:  Size  Location     Type
  9483 ;;                  1    wreg      unsigned char 
  9484 ;; Registers used:
  9485 ;;		wreg, status,2, status,0
  9486 ;; Tracked objects:
  9487 ;;		On entry : 0/0
  9488 ;;		On exit  : 0/0
  9489 ;;		Unchanged: 0/0
  9490 ;; Data sizes:     COMMON   BANK0   BANK1   BANK3   BANK2
  9491 ;;      Params:         0       0       0       0       0
  9492 ;;      Locals:         1       0       0       0       0
  9493 ;;      Temps:          0       0       0       0       0
  9494 ;;      Totals:         1       0       0       0       0
  9495 ;;Total ram usage:        1 bytes
  9496 ;; Hardware stack levels used: 1
  9497 ;; Hardware stack levels required when called: 1
  9498 ;; This function calls:
  9499 ;;		Nothing
  9500 ;; This function is called by:
  9501 ;;		_main
  9502 ;; This function uses a non-reentrant model
  9503 ;;
  9504                           
  9505     1225                     _clear_log:	
  9506                           ;psect for function _clear_log
  9507                           
  9508                           
  9509                           ;incstack = 0
  9510                           ; Regs used in _clear_log: [wreg+status,2+status,0]
  9511                           ;clear_log@reset_flag stored from wreg
  9512     1225  00F2               	movwf	clear_log@reset_flag
  9513     1226                     l5189:
  9514                           
  9515                           ;cbb.c: 311: unsigned char clear_log(unsigned char reset_flag);cbb.c: 312: {;cbb.c: 313:
      +                               if(reset_flag == 0x90)
  9516     1226  3090               	movlw	144
  9517     1227  0672               	xorwf	clear_log@reset_flag,w
  9518     1228  1D03               	btfss	3,2
  9519     1229  2A2B               	goto	u5541
  9520     122A  2A2C               	goto	u5540
  9521     122B                     u5541:
  9522     122B  2A35               	goto	l438
  9523     122C                     u5540:
  9524     122C                     l5191:
  9525                           
  9526                           ;cbb.c: 314:     {;cbb.c: 315:         pos = -1;
  9527     122C  30FF               	movlw	255
  9528     122D  1283               	bcf	3,5	;RP0=0, select bank0
  9529     122E  1303               	bcf	3,6	;RP1=0, select bank0
  9530     122F  00DB               	movwf	_pos
  9531                           
  9532                           ;cbb.c: 316:         pos2 = -1;
  9533     1230  30FF               	movlw	255
  9534     1231  00D3               	movwf	_pos2
  9535     1232  30FF               	movlw	255
  9536     1233  00D4               	movwf	_pos2+1
  9537                           
  9538                           ;cbb.c: 317:         return 0xA0;
  9539     1234  30A0               	movlw	160
  9540     1235                     l438:
  9541     1235  0008               	return
  9542     1236                     __end_of_clear_log:
  9543                           
  9544                           	psect	text37
  9545     0E25                     __ptext37:	
  9546 ;; *************** function _change_pwd *****************
  9547 ;; Defined at:
  9548 ;;		line 205 in file "cbb.c"
  9549 ;; Parameters:    Size  Location     Type
  9550 ;;  key             1    wreg     unsigned char 
  9551 ;;  reset_flag      1    5[BANK0 ] unsigned char 
  9552 ;;  control_flag    1    6[BANK0 ] unsigned char 
  9553 ;; Auto vars:     Size  Location     Type
  9554 ;;  key             1   16[BANK0 ] unsigned char 
  9555 ;;  pwd             4   12[BANK0 ] unsigned char [4]
  9556 ;;  pwd1            4    8[BANK0 ] unsigned char [4]
  9557 ;; Return value:  Size  Location     Type
  9558 ;;                  1    wreg      unsigned char 
  9559 ;; Registers used:
  9560 ;;		wreg, fsr0l, fsr0h, status,2, status,0, btemp+1, pclath, cstack
  9561 ;; Tracked objects:
  9562 ;;		On entry : 0/0
  9563 ;;		On exit  : 0/0
  9564 ;;		Unchanged: 0/0
  9565 ;; Data sizes:     COMMON   BANK0   BANK1   BANK3   BANK2
  9566 ;;      Params:         0       2       0       0       0
  9567 ;;      Locals:         0       9       0       0       0
  9568 ;;      Temps:          0       1       0       0       0
  9569 ;;      Totals:         0      12       0       0       0
  9570 ;;Total ram usage:       12 bytes
  9571 ;; Hardware stack levels used: 1
  9572 ;; Hardware stack levels required when called: 5
  9573 ;; This function calls:
  9574 ;;		_clcd_print
  9575 ;;		_clcd_putch
  9576 ;;		_clcd_write
  9577 ;;		_clear_screen
  9578 ;;		_eeprom_at24c04_str_write
  9579 ;;		_strncmp
  9580 ;; This function is called by:
  9581 ;;		_main
  9582 ;; This function uses a non-reentrant model
  9583 ;;
  9584                           
  9585     0E25                     _change_pwd:	
  9586                           ;psect for function _change_pwd
  9587                           
  9588                           
  9589                           ;incstack = 0
  9590                           ; Regs used in _change_pwd: [wreg-fsr0h+status,2+status,0+btemp+1+pclath+cstack]
  9591                           ;change_pwd@key stored from wreg
  9592     0E25  1283               	bcf	3,5	;RP0=0, select bank0
  9593     0E26  1303               	bcf	3,6	;RP1=0, select bank0
  9594     0E27  00B0               	movwf	change_pwd@key
  9595     0E28                     l5043:
  9596                           
  9597                           ;cbb.c: 205: unsigned char change_pwd(unsigned char key, unsigned char reset_flag,unsign
      +                          ed char control_flag);cbb.c: 206: {;cbb.c: 208:     char pwd[4];;cbb.c: 209:     char pw
      +                          d1[4];;cbb.c: 210:     static int i = 0,flag = 0 ,j = 0;;cbb.c: 211:     static int s = 
      +                          0;;cbb.c: 213:     if(reset_flag == 0x70 && i < 4 && flag == 0)
  9598     0E28  3070               	movlw	112
  9599     0E29  0625               	xorwf	change_pwd@reset_flag,w
  9600     0E2A  1D03               	btfss	3,2
  9601     0E2B  2E2D               	goto	u5251
  9602     0E2C  2E2E               	goto	u5250
  9603     0E2D                     u5251:
  9604     0E2D  2E63               	goto	l5057
  9605     0E2E                     u5250:
  9606     0E2E                     l5045:
  9607     0E2E  0844               	movf	change_pwd@i+1,w
  9608     0E2F  3A80               	xorlw	128
  9609     0E30  00FF               	movwf	btemp+1
  9610     0E31  3080               	movlw	128
  9611     0E32  027F               	subwf	btemp+1,w
  9612     0E33  1D03               	skipz
  9613     0E34  2E37               	goto	u5265
  9614     0E35  3004               	movlw	4
  9615     0E36  0243               	subwf	change_pwd@i,w
  9616     0E37                     u5265:
  9617     0E37  1803               	skipnc
  9618     0E38  2E3A               	goto	u5261
  9619     0E39  2E3B               	goto	u5260
  9620     0E3A                     u5261:
  9621     0E3A  2E63               	goto	l5057
  9622     0E3B                     u5260:
  9623     0E3B                     l5047:
  9624     0E3B  1283               	bcf	3,5	;RP0=0, select bank0
  9625     0E3C  1303               	bcf	3,6	;RP1=0, select bank0
  9626     0E3D  0841               	movf	change_pwd@flag,w
  9627     0E3E  0442               	iorwf	change_pwd@flag+1,w
  9628     0E3F  1D03               	btfss	3,2
  9629     0E40  2E42               	goto	u5271
  9630     0E41  2E43               	goto	u5270
  9631     0E42                     u5271:
  9632     0E42  2E63               	goto	l5057
  9633     0E43                     u5270:
  9634     0E43                     l5049:
  9635                           
  9636                           ;cbb.c: 214:     {;cbb.c: 215:     clcd_print(" ENTER NEW PWD",(0x80 + 1));
  9637     0E43  3085               	movlw	low (STR_23| (0+32768))
  9638     0E44  00F6               	movwf	clcd_print@str
  9639     0E45  3090               	movlw	high (STR_23| (0+32768))
  9640     0E46  00F7               	movwf	clcd_print@str+1
  9641     0E47  3081               	movlw	129
  9642     0E48  00F8               	movwf	clcd_print@addr
  9643     0E49  160A  118A  23BF  120A  158A  	fcall	_clcd_print
  9644     0E4E                     l5051:
  9645                           
  9646                           ;cbb.c: 216:      clcd_write(0xC6,0);
  9647     0E4E  01F2               	clrf	clcd_write@mode
  9648     0E4F  30C6               	movlw	198
  9649     0E50  160A  118A  22B6  120A  158A  	fcall	_clcd_write
  9650     0E55                     l5053:
  9651                           
  9652                           ;cbb.c: 217:     clcd_write(0x0F,0);
  9653     0E55  01F2               	clrf	clcd_write@mode
  9654     0E56  300F               	movlw	15
  9655     0E57  160A  118A  22B6  120A  158A  	fcall	_clcd_write
  9656     0E5C                     l5055:
  9657                           
  9658                           ;cbb.c: 218:     _delay((unsigned long)((100)*(20000000/4000000.0)));
  9659     0E5C  30A5               	movlw	165
  9660     0E5D  1283               	bcf	3,5	;RP0=0, select bank0
  9661     0E5E  1303               	bcf	3,6	;RP1=0, select bank0
  9662     0E5F  00A7               	movwf	??_change_pwd
  9663     0E60                     u6387:
  9664     0E60  0BA7               	decfsz	??_change_pwd,f
  9665     0E61  2E60               	goto	u6387
  9666     0E62  2E63               	nop2
  9667     0E63                     l5057:
  9668                           
  9669                           ;cbb.c: 220:             if(key == 0x3E && i < 4 && flag == 0)
  9670     0E63  303E               	movlw	62
  9671     0E64  1283               	bcf	3,5	;RP0=0, select bank0
  9672     0E65  1303               	bcf	3,6	;RP1=0, select bank0
  9673     0E66  0630               	xorwf	change_pwd@key,w
  9674     0E67  1D03               	btfss	3,2
  9675     0E68  2E6A               	goto	u5281
  9676     0E69  2E6B               	goto	u5280
  9677     0E6A                     u5281:
  9678     0E6A  2EA3               	goto	l5075
  9679     0E6B                     u5280:
  9680     0E6B                     l5059:
  9681     0E6B  0844               	movf	change_pwd@i+1,w
  9682     0E6C  3A80               	xorlw	128
  9683     0E6D  00FF               	movwf	btemp+1
  9684     0E6E  3080               	movlw	128
  9685     0E6F  027F               	subwf	btemp+1,w
  9686     0E70  1D03               	skipz
  9687     0E71  2E74               	goto	u5295
  9688     0E72  3004               	movlw	4
  9689     0E73  0243               	subwf	change_pwd@i,w
  9690     0E74                     u5295:
  9691     0E74  1803               	skipnc
  9692     0E75  2E77               	goto	u5291
  9693     0E76  2E78               	goto	u5290
  9694     0E77                     u5291:
  9695     0E77  2EA3               	goto	l5075
  9696     0E78                     u5290:
  9697     0E78                     l5061:
  9698     0E78  1283               	bcf	3,5	;RP0=0, select bank0
  9699     0E79  1303               	bcf	3,6	;RP1=0, select bank0
  9700     0E7A  0841               	movf	change_pwd@flag,w
  9701     0E7B  0442               	iorwf	change_pwd@flag+1,w
  9702     0E7C  1D03               	btfss	3,2
  9703     0E7D  2E7F               	goto	u5301
  9704     0E7E  2E80               	goto	u5300
  9705     0E7F                     u5301:
  9706     0E7F  2EA3               	goto	l5075
  9707     0E80                     u5300:
  9708     0E80                     l5063:
  9709                           
  9710                           ;cbb.c: 221:             {;cbb.c: 222:                 if(i == 3)
  9711     0E80  3003               	movlw	3
  9712     0E81  0643               	xorwf	change_pwd@i,w
  9713     0E82  0444               	iorwf	change_pwd@i+1,w
  9714     0E83  1D03               	btfss	3,2
  9715     0E84  2E86               	goto	u5311
  9716     0E85  2E87               	goto	u5310
  9717     0E86                     u5311:
  9718     0E86  2E89               	goto	l5067
  9719     0E87                     u5310:
  9720     0E87                     l5065:
  9721                           
  9722                           ;cbb.c: 223:                 {;cbb.c: 224:                     key = 0x3F;
  9723     0E87  303F               	movlw	63
  9724     0E88  00B0               	movwf	change_pwd@key
  9725     0E89                     l5067:
  9726                           
  9727                           ;cbb.c: 226:                 pwd[i] = '4';
  9728     0E89  0843               	movf	change_pwd@i,w
  9729     0E8A  3E2C               	addlw	(low (change_pwd@pwd| 0))& (0+255)
  9730     0E8B  0084               	movwf	4
  9731     0E8C  3034               	movlw	52
  9732     0E8D  1383               	bcf	3,7	;select IRP bank0
  9733     0E8E  0080               	movwf	0
  9734     0E8F                     l5069:
  9735                           
  9736                           ;cbb.c: 227:                 clcd_putch('*',(0xC0 + 6+i));
  9737     0E8F  0843               	movf	change_pwd@i,w
  9738     0E90  3EC6               	addlw	198
  9739     0E91  00F9               	movwf	clcd_putch@addr
  9740     0E92  302A               	movlw	42
  9741     0E93  160A  118A  226E  120A  158A  	fcall	_clcd_putch
  9742     0E98                     l5071:
  9743                           
  9744                           ;cbb.c: 228:                 i++;
  9745     0E98  3001               	movlw	1
  9746     0E99  1283               	bcf	3,5	;RP0=0, select bank0
  9747     0E9A  1303               	bcf	3,6	;RP1=0, select bank0
  9748     0E9B  07C3               	addwf	change_pwd@i,f
  9749     0E9C  1803               	skipnc
  9750     0E9D  0AC4               	incf	change_pwd@i+1,f
  9751     0E9E  3000               	movlw	0
  9752     0E9F  07C4               	addwf	change_pwd@i+1,f
  9753     0EA0                     l5073:
  9754                           
  9755                           ;cbb.c: 230:                 return_time = 5;
  9756     0EA0  3005               	movlw	5
  9757     0EA1  00DC               	movwf	_return_time
  9758                           
  9759                           ;cbb.c: 231:             }
  9760     0EA2  2ED9               	goto	l5093
  9761     0EA3                     l5075:
  9762     0EA3  303D               	movlw	61
  9763     0EA4  1283               	bcf	3,5	;RP0=0, select bank0
  9764     0EA5  1303               	bcf	3,6	;RP1=0, select bank0
  9765     0EA6  0630               	xorwf	change_pwd@key,w
  9766     0EA7  1D03               	btfss	3,2
  9767     0EA8  2EAA               	goto	u5321
  9768     0EA9  2EAB               	goto	u5320
  9769     0EAA                     u5321:
  9770     0EAA  2ED9               	goto	l5093
  9771     0EAB                     u5320:
  9772     0EAB                     l5077:
  9773     0EAB  0844               	movf	change_pwd@i+1,w
  9774     0EAC  3A80               	xorlw	128
  9775     0EAD  00FF               	movwf	btemp+1
  9776     0EAE  3080               	movlw	128
  9777     0EAF  027F               	subwf	btemp+1,w
  9778     0EB0  1D03               	skipz
  9779     0EB1  2EB4               	goto	u5335
  9780     0EB2  3004               	movlw	4
  9781     0EB3  0243               	subwf	change_pwd@i,w
  9782     0EB4                     u5335:
  9783     0EB4  1803               	skipnc
  9784     0EB5  2EB7               	goto	u5331
  9785     0EB6  2EB8               	goto	u5330
  9786     0EB7                     u5331:
  9787     0EB7  2ED9               	goto	l5093
  9788     0EB8                     u5330:
  9789     0EB8                     l5079:
  9790     0EB8  1283               	bcf	3,5	;RP0=0, select bank0
  9791     0EB9  1303               	bcf	3,6	;RP1=0, select bank0
  9792     0EBA  0841               	movf	change_pwd@flag,w
  9793     0EBB  0442               	iorwf	change_pwd@flag+1,w
  9794     0EBC  1D03               	btfss	3,2
  9795     0EBD  2EBF               	goto	u5341
  9796     0EBE  2EC0               	goto	u5340
  9797     0EBF                     u5341:
  9798     0EBF  2ED9               	goto	l5093
  9799     0EC0                     u5340:
  9800     0EC0                     l5081:
  9801                           
  9802                           ;cbb.c: 233:             {;cbb.c: 234:                 if(i == 3)
  9803     0EC0  3003               	movlw	3
  9804     0EC1  0643               	xorwf	change_pwd@i,w
  9805     0EC2  0444               	iorwf	change_pwd@i+1,w
  9806     0EC3  1D03               	btfss	3,2
  9807     0EC4  2EC6               	goto	u5351
  9808     0EC5  2EC7               	goto	u5350
  9809     0EC6                     u5351:
  9810     0EC6  2EC9               	goto	l5085
  9811     0EC7                     u5350:
  9812     0EC7                     l5083:
  9813                           
  9814                           ;cbb.c: 235:                 {;cbb.c: 236:                     key = 0x3F;
  9815     0EC7  303F               	movlw	63
  9816     0EC8  00B0               	movwf	change_pwd@key
  9817     0EC9                     l5085:
  9818                           
  9819                           ;cbb.c: 238:                 pwd[i] = '5';
  9820     0EC9  0843               	movf	change_pwd@i,w
  9821     0ECA  3E2C               	addlw	(low (change_pwd@pwd| 0))& (0+255)
  9822     0ECB  0084               	movwf	4
  9823     0ECC  3035               	movlw	53
  9824     0ECD  1383               	bcf	3,7	;select IRP bank0
  9825     0ECE  0080               	movwf	0
  9826     0ECF                     l5087:
  9827                           
  9828                           ;cbb.c: 239:                 clcd_putch('*',(0xC0 + 6+i));
  9829     0ECF  0843               	movf	change_pwd@i,w
  9830     0ED0  3EC6               	addlw	198
  9831     0ED1  00F9               	movwf	clcd_putch@addr
  9832     0ED2  302A               	movlw	42
  9833     0ED3  160A  118A  226E  120A  158A  	fcall	_clcd_putch
  9834     0ED8  2E98               	goto	l5071
  9835     0ED9                     l5093:
  9836                           
  9837                           ;cbb.c: 246:     if( i == 4 && flag == 0)
  9838     0ED9  3004               	movlw	4
  9839     0EDA  1283               	bcf	3,5	;RP0=0, select bank0
  9840     0EDB  1303               	bcf	3,6	;RP1=0, select bank0
  9841     0EDC  0643               	xorwf	change_pwd@i,w
  9842     0EDD  0444               	iorwf	change_pwd@i+1,w
  9843     0EDE  1D03               	btfss	3,2
  9844     0EDF  2EE1               	goto	u5361
  9845     0EE0  2EE2               	goto	u5360
  9846     0EE1                     u5361:
  9847     0EE1  2EF5               	goto	l5103
  9848     0EE2                     u5360:
  9849     0EE2                     l5095:
  9850     0EE2  0841               	movf	change_pwd@flag,w
  9851     0EE3  0442               	iorwf	change_pwd@flag+1,w
  9852     0EE4  1D03               	btfss	3,2
  9853     0EE5  2EE7               	goto	u5371
  9854     0EE6  2EE8               	goto	u5370
  9855     0EE7                     u5371:
  9856     0EE7  2EF5               	goto	l5103
  9857     0EE8                     u5370:
  9858     0EE8                     l5097:
  9859                           
  9860                           ;cbb.c: 247:     {;cbb.c: 248:        clear_screen();
  9861     0EE8  160A  118A  2214  120A  158A  	fcall	_clear_screen
  9862     0EED                     l5099:
  9863                           
  9864                           ;cbb.c: 249:         reset_flag = 0x80;
  9865     0EED  3080               	movlw	128
  9866     0EEE  1283               	bcf	3,5	;RP0=0, select bank0
  9867     0EEF  1303               	bcf	3,6	;RP1=0, select bank0
  9868     0EF0  00A5               	movwf	change_pwd@reset_flag
  9869     0EF1                     l5101:
  9870                           
  9871                           ;cbb.c: 250:         flag = 1;
  9872     0EF1  3001               	movlw	1
  9873     0EF2  00C1               	movwf	change_pwd@flag
  9874     0EF3  3000               	movlw	0
  9875     0EF4  00C2               	movwf	change_pwd@flag+1
  9876     0EF5                     l5103:
  9877                           
  9878                           ;cbb.c: 256:     if(key == 0x3F && reset_flag == 0x80 && i== 4 && s < 4 && flag == 1)
  9879     0EF5  303F               	movlw	63
  9880     0EF6  0630               	xorwf	change_pwd@key,w
  9881     0EF7  1D03               	btfss	3,2
  9882     0EF8  2EFA               	goto	u5381
  9883     0EF9  2EFB               	goto	u5380
  9884     0EFA                     u5381:
  9885     0EFA  2F3D               	goto	l5121
  9886     0EFB                     u5380:
  9887     0EFB                     l5105:
  9888     0EFB  3080               	movlw	128
  9889     0EFC  0625               	xorwf	change_pwd@reset_flag,w
  9890     0EFD  1D03               	btfss	3,2
  9891     0EFE  2F00               	goto	u5391
  9892     0EFF  2F01               	goto	u5390
  9893     0F00                     u5391:
  9894     0F00  2F3D               	goto	l5121
  9895     0F01                     u5390:
  9896     0F01                     l5107:
  9897     0F01  3004               	movlw	4
  9898     0F02  0643               	xorwf	change_pwd@i,w
  9899     0F03  0444               	iorwf	change_pwd@i+1,w
  9900     0F04  1D03               	btfss	3,2
  9901     0F05  2F07               	goto	u5401
  9902     0F06  2F08               	goto	u5400
  9903     0F07                     u5401:
  9904     0F07  2F3D               	goto	l5121
  9905     0F08                     u5400:
  9906     0F08                     l5109:
  9907     0F08  0840               	movf	change_pwd@s+1,w
  9908     0F09  3A80               	xorlw	128
  9909     0F0A  00FF               	movwf	btemp+1
  9910     0F0B  3080               	movlw	128
  9911     0F0C  027F               	subwf	btemp+1,w
  9912     0F0D  1D03               	skipz
  9913     0F0E  2F11               	goto	u5415
  9914     0F0F  3004               	movlw	4
  9915     0F10  023F               	subwf	change_pwd@s,w
  9916     0F11                     u5415:
  9917     0F11  1803               	skipnc
  9918     0F12  2F14               	goto	u5411
  9919     0F13  2F15               	goto	u5410
  9920     0F14                     u5411:
  9921     0F14  2F3D               	goto	l5121
  9922     0F15                     u5410:
  9923     0F15                     l5111:
  9924     0F15  1283               	bcf	3,5	;RP0=0, select bank0
  9925     0F16  1303               	bcf	3,6	;RP1=0, select bank0
  9926     0F17  0341               	decf	change_pwd@flag,w
  9927     0F18  0442               	iorwf	change_pwd@flag+1,w
  9928     0F19  1D03               	btfss	3,2
  9929     0F1A  2F1C               	goto	u5421
  9930     0F1B  2F1D               	goto	u5420
  9931     0F1C                     u5421:
  9932     0F1C  2F3D               	goto	l5121
  9933     0F1D                     u5420:
  9934     0F1D                     l5113:
  9935                           
  9936                           ;cbb.c: 257:     {;cbb.c: 259:     clcd_print("REENTER NEWPWD",(0x80 + 1));
  9937     0F1D  3094               	movlw	low (STR_24| (0+32768))
  9938     0F1E  00F6               	movwf	clcd_print@str
  9939     0F1F  3090               	movlw	high (STR_24| (0+32768))
  9940     0F20  00F7               	movwf	clcd_print@str+1
  9941     0F21  3081               	movlw	129
  9942     0F22  00F8               	movwf	clcd_print@addr
  9943     0F23  160A  118A  23BF  120A  158A  	fcall	_clcd_print
  9944     0F28                     l5115:
  9945                           
  9946                           ;cbb.c: 260:      clcd_write(0xC6,0);
  9947     0F28  01F2               	clrf	clcd_write@mode
  9948     0F29  30C6               	movlw	198
  9949     0F2A  160A  118A  22B6  120A  158A  	fcall	_clcd_write
  9950     0F2F                     l5117:
  9951                           
  9952                           ;cbb.c: 261:     clcd_write(0x0F,0);
  9953     0F2F  01F2               	clrf	clcd_write@mode
  9954     0F30  300F               	movlw	15
  9955     0F31  160A  118A  22B6  120A  158A  	fcall	_clcd_write
  9956     0F36                     l5119:
  9957                           
  9958                           ;cbb.c: 262:     _delay((unsigned long)((100)*(20000000/4000000.0)));
  9959     0F36  30A5               	movlw	165
  9960     0F37  1283               	bcf	3,5	;RP0=0, select bank0
  9961     0F38  1303               	bcf	3,6	;RP1=0, select bank0
  9962     0F39  00A7               	movwf	??_change_pwd
  9963     0F3A                     u6397:
  9964     0F3A  0BA7               	decfsz	??_change_pwd,f
  9965     0F3B  2F3A               	goto	u6397
  9966     0F3C  2F3D               	nop2
  9967     0F3D                     l5121:
  9968                           
  9969                           ;cbb.c: 264:             if(key == 0x3E && i == 4 && s < 4 && flag == 1)
  9970     0F3D  303E               	movlw	62
  9971     0F3E  1283               	bcf	3,5	;RP0=0, select bank0
  9972     0F3F  1303               	bcf	3,6	;RP1=0, select bank0
  9973     0F40  0630               	xorwf	change_pwd@key,w
  9974     0F41  1D03               	btfss	3,2
  9975     0F42  2F44               	goto	u5431
  9976     0F43  2F45               	goto	u5430
  9977     0F44                     u5431:
  9978     0F44  2F7B               	goto	l5137
  9979     0F45                     u5430:
  9980     0F45                     l5123:
  9981     0F45  3004               	movlw	4
  9982     0F46  0643               	xorwf	change_pwd@i,w
  9983     0F47  0444               	iorwf	change_pwd@i+1,w
  9984     0F48  1D03               	btfss	3,2
  9985     0F49  2F4B               	goto	u5441
  9986     0F4A  2F4C               	goto	u5440
  9987     0F4B                     u5441:
  9988     0F4B  2F7B               	goto	l5137
  9989     0F4C                     u5440:
  9990     0F4C                     l5125:
  9991     0F4C  0840               	movf	change_pwd@s+1,w
  9992     0F4D  3A80               	xorlw	128
  9993     0F4E  00FF               	movwf	btemp+1
  9994     0F4F  3080               	movlw	128
  9995     0F50  027F               	subwf	btemp+1,w
  9996     0F51  1D03               	skipz
  9997     0F52  2F55               	goto	u5455
  9998     0F53  3004               	movlw	4
  9999     0F54  023F               	subwf	change_pwd@s,w
 10000     0F55                     u5455:
 10001     0F55  1803               	skipnc
 10002     0F56  2F58               	goto	u5451
 10003     0F57  2F59               	goto	u5450
 10004     0F58                     u5451:
 10005     0F58  2F7B               	goto	l5137
 10006     0F59                     u5450:
 10007     0F59                     l5127:
 10008     0F59  1283               	bcf	3,5	;RP0=0, select bank0
 10009     0F5A  1303               	bcf	3,6	;RP1=0, select bank0
 10010     0F5B  0341               	decf	change_pwd@flag,w
 10011     0F5C  0442               	iorwf	change_pwd@flag+1,w
 10012     0F5D  1D03               	btfss	3,2
 10013     0F5E  2F60               	goto	u5461
 10014     0F5F  2F61               	goto	u5460
 10015     0F60                     u5461:
 10016     0F60  2F7B               	goto	l5137
 10017     0F61                     u5460:
 10018     0F61                     l5129:
 10019                           
 10020                           ;cbb.c: 265:             {;cbb.c: 266:                 pwd1[s] = '4';
 10021     0F61  083F               	movf	change_pwd@s,w
 10022     0F62  3E28               	addlw	(low (change_pwd@pwd1| 0))& (0+255)
 10023     0F63  0084               	movwf	4
 10024     0F64  3034               	movlw	52
 10025     0F65  1383               	bcf	3,7	;select IRP bank0
 10026     0F66  0080               	movwf	0
 10027     0F67                     l5131:
 10028                           
 10029                           ;cbb.c: 267:                 clcd_putch('*',(0xC0 + 6+s));
 10030     0F67  083F               	movf	change_pwd@s,w
 10031     0F68  3EC6               	addlw	198
 10032     0F69  00F9               	movwf	clcd_putch@addr
 10033     0F6A  302A               	movlw	42
 10034     0F6B  160A  118A  226E  120A  158A  	fcall	_clcd_putch
 10035     0F70                     l5133:
 10036                           
 10037                           ;cbb.c: 268:                 s++;
 10038     0F70  3001               	movlw	1
 10039     0F71  1283               	bcf	3,5	;RP0=0, select bank0
 10040     0F72  1303               	bcf	3,6	;RP1=0, select bank0
 10041     0F73  07BF               	addwf	change_pwd@s,f
 10042     0F74  1803               	skipnc
 10043     0F75  0AC0               	incf	change_pwd@s+1,f
 10044     0F76  3000               	movlw	0
 10045     0F77  07C0               	addwf	change_pwd@s+1,f
 10046     0F78                     l5135:
 10047                           
 10048                           ;cbb.c: 269:                 return_time = 5;
 10049     0F78  3005               	movlw	5
 10050     0F79  00DC               	movwf	_return_time
 10051                           
 10052                           ;cbb.c: 270:             }
 10053     0F7A  2FAF               	goto	l5153
 10054     0F7B                     l5137:
 10055     0F7B  303D               	movlw	61
 10056     0F7C  1283               	bcf	3,5	;RP0=0, select bank0
 10057     0F7D  1303               	bcf	3,6	;RP1=0, select bank0
 10058     0F7E  0630               	xorwf	change_pwd@key,w
 10059     0F7F  1D03               	btfss	3,2
 10060     0F80  2F82               	goto	u5471
 10061     0F81  2F83               	goto	u5470
 10062     0F82                     u5471:
 10063     0F82  2FAF               	goto	l5153
 10064     0F83                     u5470:
 10065     0F83                     l5139:
 10066     0F83  3004               	movlw	4
 10067     0F84  0643               	xorwf	change_pwd@i,w
 10068     0F85  0444               	iorwf	change_pwd@i+1,w
 10069     0F86  1D03               	btfss	3,2
 10070     0F87  2F89               	goto	u5481
 10071     0F88  2F8A               	goto	u5480
 10072     0F89                     u5481:
 10073     0F89  2FAF               	goto	l5153
 10074     0F8A                     u5480:
 10075     0F8A                     l5141:
 10076     0F8A  0840               	movf	change_pwd@s+1,w
 10077     0F8B  3A80               	xorlw	128
 10078     0F8C  00FF               	movwf	btemp+1
 10079     0F8D  3080               	movlw	128
 10080     0F8E  027F               	subwf	btemp+1,w
 10081     0F8F  1D03               	skipz
 10082     0F90  2F93               	goto	u5495
 10083     0F91  3004               	movlw	4
 10084     0F92  023F               	subwf	change_pwd@s,w
 10085     0F93                     u5495:
 10086     0F93  1803               	skipnc
 10087     0F94  2F96               	goto	u5491
 10088     0F95  2F97               	goto	u5490
 10089     0F96                     u5491:
 10090     0F96  2FAF               	goto	l5153
 10091     0F97                     u5490:
 10092     0F97                     l5143:
 10093     0F97  1283               	bcf	3,5	;RP0=0, select bank0
 10094     0F98  1303               	bcf	3,6	;RP1=0, select bank0
 10095     0F99  0341               	decf	change_pwd@flag,w
 10096     0F9A  0442               	iorwf	change_pwd@flag+1,w
 10097     0F9B  1D03               	btfss	3,2
 10098     0F9C  2F9E               	goto	u5501
 10099     0F9D  2F9F               	goto	u5500
 10100     0F9E                     u5501:
 10101     0F9E  2FAF               	goto	l5153
 10102     0F9F                     u5500:
 10103     0F9F                     l5145:
 10104                           
 10105                           ;cbb.c: 272:             {;cbb.c: 273:                 pwd1[s] = '5';
 10106     0F9F  083F               	movf	change_pwd@s,w
 10107     0FA0  3E28               	addlw	(low (change_pwd@pwd1| 0))& (0+255)
 10108     0FA1  0084               	movwf	4
 10109     0FA2  3035               	movlw	53
 10110     0FA3  1383               	bcf	3,7	;select IRP bank0
 10111     0FA4  0080               	movwf	0
 10112     0FA5                     l5147:
 10113                           
 10114                           ;cbb.c: 274:                 clcd_putch('*',(0xC0 + 6+s));
 10115     0FA5  083F               	movf	change_pwd@s,w
 10116     0FA6  3EC6               	addlw	198
 10117     0FA7  00F9               	movwf	clcd_putch@addr
 10118     0FA8  302A               	movlw	42
 10119     0FA9  160A  118A  226E  120A  158A  	fcall	_clcd_putch
 10120     0FAE  2F70               	goto	l5133
 10121     0FAF                     l5153:
 10122                           
 10123                           ;cbb.c: 280:     if(s == 4 && i == 4)
 10124     0FAF  3004               	movlw	4
 10125     0FB0  1283               	bcf	3,5	;RP0=0, select bank0
 10126     0FB1  1303               	bcf	3,6	;RP1=0, select bank0
 10127     0FB2  063F               	xorwf	change_pwd@s,w
 10128     0FB3  0440               	iorwf	change_pwd@s+1,w
 10129     0FB4  1D03               	btfss	3,2
 10130     0FB5  2FB7               	goto	u5511
 10131     0FB6  2FB8               	goto	u5510
 10132     0FB7                     u5511:
 10133     0FB7  2FFF               	goto	l433
 10134     0FB8                     u5510:
 10135     0FB8                     l5155:
 10136     0FB8  3004               	movlw	4
 10137     0FB9  0643               	xorwf	change_pwd@i,w
 10138     0FBA  0444               	iorwf	change_pwd@i+1,w
 10139     0FBB  1D03               	btfss	3,2
 10140     0FBC  2FBE               	goto	u5521
 10141     0FBD  2FBF               	goto	u5520
 10142     0FBE                     u5521:
 10143     0FBE  2FFF               	goto	l433
 10144     0FBF                     u5520:
 10145     0FBF                     l5157:
 10146                           
 10147                           ;cbb.c: 281:     {;cbb.c: 282:         clcd_write(0x0C,0);
 10148     0FBF  01F2               	clrf	clcd_write@mode
 10149     0FC0  300C               	movlw	12
 10150     0FC1  160A  118A  22B6  120A  158A  	fcall	_clcd_write
 10151     0FC6                     l5159:
 10152                           
 10153                           ;cbb.c: 283:         if(strncmp(pwd,pwd1,4) == 0)
 10154     0FC6  3028               	movlw	(low (change_pwd@pwd1| 0))& (0+255)
 10155     0FC7  00F2               	movwf	strncmp@s2
 10156     0FC8  3004               	movlw	4
 10157     0FC9  00F3               	movwf	strncmp@len
 10158     0FCA  3000               	movlw	0
 10159     0FCB  00F4               	movwf	strncmp@len+1
 10160     0FCC  302C               	movlw	(low (change_pwd@pwd| 0))& (0+255)
 10161     0FCD  160A  118A  24EC  120A  158A  	fcall	_strncmp
 10162     0FD2  0872               	movf	?_strncmp,w
 10163     0FD3  0473               	iorwf	?_strncmp+1,w
 10164     0FD4  1D03               	btfss	3,2
 10165     0FD5  2FD7               	goto	u5531
 10166     0FD6  2FD8               	goto	u5530
 10167     0FD7                     u5531:
 10168     0FD7  2FF1               	goto	l5177
 10169     0FD8                     u5530:
 10170     0FD8                     l5161:
 10171                           
 10172                           ;cbb.c: 284:         {;cbb.c: 285:             clear_screen();
 10173     0FD8  160A  118A  2214  120A  158A  	fcall	_clear_screen
 10174     0FDD                     l5163:
 10175                           
 10176                           ;cbb.c: 286:             i = 0;
 10177     0FDD  1283               	bcf	3,5	;RP0=0, select bank0
 10178     0FDE  1303               	bcf	3,6	;RP1=0, select bank0
 10179     0FDF  01C3               	clrf	change_pwd@i
 10180     0FE0  01C4               	clrf	change_pwd@i+1
 10181     0FE1                     l5165:
 10182                           
 10183                           ;cbb.c: 287:             s = 0;
 10184     0FE1  01BF               	clrf	change_pwd@s
 10185     0FE2  01C0               	clrf	change_pwd@s+1
 10186     0FE3                     l5167:
 10187                           
 10188                           ;cbb.c: 289:             flag = 0;
 10189     0FE3  01C1               	clrf	change_pwd@flag
 10190     0FE4  01C2               	clrf	change_pwd@flag+1
 10191     0FE5                     l5169:
 10192                           
 10193                           ;cbb.c: 290:             eeprom_at24c04_str_write(0x00,pwd);
 10194     0FE5  302C               	movlw	(low (change_pwd@pwd| 0))& (0+255)
 10195     0FE6  00F7               	movwf	eeprom_at24c04_str_write@data
 10196     0FE7  3000               	movlw	0
 10197     0FE8  00F8               	movwf	eeprom_at24c04_str_write@data+1
 10198     0FE9  3000               	movlw	0
 10199     0FEA  160A  118A  23EE  120A  158A  	fcall	_eeprom_at24c04_str_write
 10200     0FEF                     l5171:
 10201                           
 10202                           ;cbb.c: 291:                  return 0x09;
 10203     0FEF  3009               	movlw	9
 10204     0FF0  2FFF               	goto	l433
 10205     0FF1                     l5177:
 10206                           
 10207                           ;cbb.c: 295:         {;cbb.c: 296:             clear_screen();
 10208     0FF1  160A  118A  2214  120A  158A  	fcall	_clear_screen
 10209     0FF6                     l5179:
 10210                           
 10211                           ;cbb.c: 297:             i = 0;
 10212     0FF6  1283               	bcf	3,5	;RP0=0, select bank0
 10213     0FF7  1303               	bcf	3,6	;RP1=0, select bank0
 10214     0FF8  01C3               	clrf	change_pwd@i
 10215     0FF9  01C4               	clrf	change_pwd@i+1
 10216     0FFA                     l5181:
 10217                           
 10218                           ;cbb.c: 298:             s = 0;
 10219     0FFA  01BF               	clrf	change_pwd@s
 10220     0FFB  01C0               	clrf	change_pwd@s+1
 10221     0FFC                     l5183:
 10222                           
 10223                           ;cbb.c: 300:             flag = 0;
 10224     0FFC  01C1               	clrf	change_pwd@flag
 10225     0FFD  01C2               	clrf	change_pwd@flag+1
 10226     0FFE                     l5185:
 10227                           
 10228                           ;cbb.c: 303:             return 0x0A;
 10229     0FFE  300A               	movlw	10
 10230     0FFF                     l433:
 10231     0FFF  0008               	return
 10232     1000                     __end_of_change_pwd:
 10233                           
 10234                           	psect	text38
 10235     14EC                     __ptext38:	
 10236 ;; *************** function _strncmp *****************
 10237 ;; Defined at:
 10238 ;;		line 4 in file "C:\Program Files\Microchip\xc8\v2.40\pic\sources\c90\common\strncmp.c"
 10239 ;; Parameters:    Size  Location     Type
 10240 ;;  s1              1    wreg     PTR const unsigned char 
 10241 ;;		 -> login@npassword(4), change_pwd@pwd(4), 
 10242 ;;  s2              1    2[COMMON] PTR const unsigned char 
 10243 ;;		 -> login@spassword(4), change_pwd@pwd1(4), 
 10244 ;;  len             2    3[COMMON] unsigned int 
 10245 ;; Auto vars:     Size  Location     Type
 10246 ;;  s1              1    7[COMMON] PTR const unsigned char 
 10247 ;;		 -> login@npassword(4), change_pwd@pwd(4), 
 10248 ;; Return value:  Size  Location     Type
 10249 ;;                  2    2[COMMON] int 
 10250 ;; Registers used:
 10251 ;;		wreg, fsr0l, fsr0h, status,2, status,0
 10252 ;; Tracked objects:
 10253 ;;		On entry : 0/0
 10254 ;;		On exit  : 0/0
 10255 ;;		Unchanged: 0/0
 10256 ;; Data sizes:     COMMON   BANK0   BANK1   BANK3   BANK2
 10257 ;;      Params:         3       0       0       0       0
 10258 ;;      Locals:         1       0       0       0       0
 10259 ;;      Temps:          2       0       0       0       0
 10260 ;;      Totals:         6       0       0       0       0
 10261 ;;Total ram usage:        6 bytes
 10262 ;; Hardware stack levels used: 1
 10263 ;; Hardware stack levels required when called: 1
 10264 ;; This function calls:
 10265 ;;		Nothing
 10266 ;; This function is called by:
 10267 ;;		_change_pwd
 10268 ;;		_login
 10269 ;; This function uses a non-reentrant model
 10270 ;;
 10271                           
 10272     14EC                     _strncmp:	
 10273                           ;psect for function _strncmp
 10274                           
 10275                           
 10276                           ;incstack = 0
 10277                           ; Regs used in _strncmp: [wreg-fsr0h+status,2+status,0]
 10278                           ;strncmp@s1 stored from wreg
 10279     14EC  00F7               	movwf	strncmp@s1
 10280     14ED                     l4559:
 10281     14ED  2D19               	goto	l1211
 10282     14EE                     l4561:
 10283     14EE  0877               	movf	strncmp@s1,w
 10284     14EF  0084               	movwf	4
 10285     14F0  1383               	bcf	3,7	;select IRP bank0
 10286     14F1  0800               	movf	0,w
 10287     14F2  1903               	btfsc	3,2
 10288     14F3  2CF5               	goto	u4491
 10289     14F4  2CF6               	goto	u4490
 10290     14F5                     u4491:
 10291     14F5  2D02               	goto	l4565
 10292     14F6                     u4490:
 10293     14F6                     l4563:
 10294     14F6  0872               	movf	strncmp@s2,w
 10295     14F7  0084               	movwf	4
 10296     14F8  0800               	movf	0,w
 10297     14F9  00F5               	movwf	??_strncmp
 10298     14FA  0877               	movf	strncmp@s1,w
 10299     14FB  0084               	movwf	4
 10300     14FC  0800               	movf	0,w
 10301     14FD  0675               	xorwf	??_strncmp,w
 10302     14FE  1903               	skipnz
 10303     14FF  2D01               	goto	u4501
 10304     1500  2D02               	goto	u4500
 10305     1501                     u4501:
 10306     1501  2D11               	goto	l4569
 10307     1502                     u4500:
 10308     1502                     l4565:
 10309     1502  0872               	movf	strncmp@s2,w
 10310     1503  0084               	movwf	4
 10311     1504  0800               	movf	0,w
 10312     1505  00F5               	movwf	??_strncmp
 10313     1506  0877               	movf	strncmp@s1,w
 10314     1507  0084               	movwf	4
 10315     1508  0800               	movf	0,w
 10316     1509  00F6               	movwf	??_strncmp+1
 10317     150A  0875               	movf	??_strncmp,w
 10318     150B  0276               	subwf	??_strncmp+1,w
 10319     150C  00F2               	movwf	?_strncmp
 10320     150D  01F3               	clrf	?_strncmp+1
 10321     150E  1C03               	skipc
 10322     150F  03F3               	decf	?_strncmp+1,f
 10323     1510  2D29               	goto	l1216
 10324     1511                     l4569:
 10325     1511  3001               	movlw	1
 10326     1512  00F5               	movwf	??_strncmp
 10327     1513  0875               	movf	??_strncmp,w
 10328     1514  07F7               	addwf	strncmp@s1,f
 10329     1515  3001               	movlw	1
 10330     1516  00F5               	movwf	??_strncmp
 10331     1517  0875               	movf	??_strncmp,w
 10332     1518  07F2               	addwf	strncmp@s2,f
 10333     1519                     l1211:
 10334     1519  3001               	movlw	1
 10335     151A  02F3               	subwf	strncmp@len,f
 10336     151B  3000               	movlw	0
 10337     151C  1C03               	skipc
 10338     151D  03F4               	decf	strncmp@len+1,f
 10339     151E  02F4               	subwf	strncmp@len+1,f
 10340     151F  0A73               	incf	strncmp@len,w
 10341     1520  1D03               	skipz
 10342     1521  2D26               	goto	u4511
 10343     1522  0A74               	incf	strncmp@len+1,w
 10344     1523  1D03               	btfss	3,2
 10345     1524  2D26               	goto	u4511
 10346     1525  2D27               	goto	u4510
 10347     1526                     u4511:
 10348     1526  2CEE               	goto	l4561
 10349     1527                     u4510:
 10350     1527                     l4571:
 10351     1527  01F2               	clrf	?_strncmp
 10352     1528  01F3               	clrf	?_strncmp+1
 10353     1529                     l1216:
 10354     1529  0008               	return
 10355     152A                     __end_of_strncmp:
 10356                           
 10357                           	psect	text39
 10358     13EE                     __ptext39:	
 10359 ;; *************** function _eeprom_at24c04_str_write *****************
 10360 ;; Defined at:
 10361 ;;		line 38 in file "at24c04.c"
 10362 ;; Parameters:    Size  Location     Type
 10363 ;;  memory_loc      1    wreg     unsigned char 
 10364 ;;  data            2    7[COMMON] PTR unsigned char 
 10365 ;;		 -> change_pwd@pwd(4), log(11), STR_7(5), 
 10366 ;; Auto vars:     Size  Location     Type
 10367 ;;  memory_loc      1    0[BANK0 ] unsigned char 
 10368 ;; Return value:  Size  Location     Type
 10369 ;;                  1    wreg      void 
 10370 ;; Registers used:
 10371 ;;		wreg, fsr0l, fsr0h, status,2, status,0, btemp+1, pclath, cstack
 10372 ;; Tracked objects:
 10373 ;;		On entry : 0/0
 10374 ;;		On exit  : 0/0
 10375 ;;		Unchanged: 0/0
 10376 ;; Data sizes:     COMMON   BANK0   BANK1   BANK3   BANK2
 10377 ;;      Params:         2       0       0       0       0
 10378 ;;      Locals:         0       1       0       0       0
 10379 ;;      Temps:          1       0       0       0       0
 10380 ;;      Totals:         3       1       0       0       0
 10381 ;;Total ram usage:        4 bytes
 10382 ;; Hardware stack levels used: 1
 10383 ;; Hardware stack levels required when called: 4
 10384 ;; This function calls:
 10385 ;;		_eeprom_at24c04_byte_write
 10386 ;; This function is called by:
 10387 ;;		_main
 10388 ;;		_log_event
 10389 ;;		_change_pwd
 10390 ;; This function uses a non-reentrant model
 10391 ;;
 10392                           
 10393     13EE                     _eeprom_at24c04_str_write:	
 10394                           ;psect for function _eeprom_at24c04_str_write
 10395                           
 10396                           
 10397                           ;incstack = 0
 10398                           ; Regs used in _eeprom_at24c04_str_write: [wreg-fsr0h+status,2+status,0+btemp+1+pclath+c
      +                          stack]
 10399                           ;eeprom_at24c04_str_write@memory_loc stored from wreg
 10400     13EE  1283               	bcf	3,5	;RP0=0, select bank0
 10401     13EF  1303               	bcf	3,6	;RP1=0, select bank0
 10402     13F0  00A0               	movwf	eeprom_at24c04_str_write@memory_loc
 10403     13F1                     l4353:
 10404                           
 10405                           ;at24c04.c: 38: void eeprom_at24c04_str_write(unsigned char memory_loc, char *data);at24
      +                          c04.c: 39: {;at24c04.c: 40:     while(*data != 0)
 10406     13F1  2C0E               	goto	l4361
 10407     13F2                     l4355:
 10408                           
 10409                           ;at24c04.c: 41:     {;at24c04.c: 42:         eeprom_at24c04_byte_write(memory_loc,*data)
      +                          ;
 10410     13F2  0878               	movf	eeprom_at24c04_str_write@data+1,w
 10411     13F3  00FF               	movwf	btemp+1
 10412     13F4  0877               	movf	eeprom_at24c04_str_write@data,w
 10413     13F5  0084               	movwf	4
 10414     13F6  160A  118A  216E  160A  118A  	fcall	stringtab
 10415     13FB  00F3               	movwf	eeprom_at24c04_byte_write@data
 10416     13FC  0820               	movf	eeprom_at24c04_str_write@memory_loc,w
 10417     13FD  160A  118A  2342  160A  118A  	fcall	_eeprom_at24c04_byte_write
 10418     1402                     l4357:
 10419                           
 10420                           ;at24c04.c: 43:         data++;
 10421     1402  3001               	movlw	1
 10422     1403  07F7               	addwf	eeprom_at24c04_str_write@data,f
 10423     1404  1803               	skipnc
 10424     1405  0AF8               	incf	eeprom_at24c04_str_write@data+1,f
 10425     1406  3000               	movlw	0
 10426     1407  07F8               	addwf	eeprom_at24c04_str_write@data+1,f
 10427     1408                     l4359:
 10428                           
 10429                           ;at24c04.c: 44:         memory_loc++;
 10430     1408  3001               	movlw	1
 10431     1409  00F9               	movwf	??_eeprom_at24c04_str_write
 10432     140A  0879               	movf	??_eeprom_at24c04_str_write,w
 10433     140B  1283               	bcf	3,5	;RP0=0, select bank0
 10434     140C  1303               	bcf	3,6	;RP1=0, select bank0
 10435     140D  07A0               	addwf	eeprom_at24c04_str_write@memory_loc,f
 10436     140E                     l4361:
 10437                           
 10438                           ;at24c04.c: 40:     while(*data != 0)
 10439     140E  0878               	movf	eeprom_at24c04_str_write@data+1,w
 10440     140F  00FF               	movwf	btemp+1
 10441     1410  0877               	movf	eeprom_at24c04_str_write@data,w
 10442     1411  0084               	movwf	4
 10443     1412  160A  118A  216E  160A  118A  	fcall	stringtab
 10444     1417  3A00               	xorlw	0
 10445     1418  1D03               	skipz
 10446     1419  2C1B               	goto	u4251
 10447     141A  2C1C               	goto	u4250
 10448     141B                     u4251:
 10449     141B  2BF2               	goto	l4355
 10450     141C                     u4250:
 10451     141C                     l583:
 10452     141C  0008               	return
 10453     141D                     __end_of_eeprom_at24c04_str_write:
 10454                           
 10455                           	psect	text40
 10456     1342                     __ptext40:	
 10457 ;; *************** function _eeprom_at24c04_byte_write *****************
 10458 ;; Defined at:
 10459 ;;		line 27 in file "at24c04.c"
 10460 ;; Parameters:    Size  Location     Type
 10461 ;;  memory_loc      1    wreg     unsigned char 
 10462 ;;  data            1    3[COMMON] unsigned char 
 10463 ;; Auto vars:     Size  Location     Type
 10464 ;;  memory_loc      1    6[COMMON] unsigned char 
 10465 ;; Return value:  Size  Location     Type
 10466 ;;                  1    wreg      void 
 10467 ;; Registers used:
 10468 ;;		wreg, status,2, status,0, pclath, cstack
 10469 ;; Tracked objects:
 10470 ;;		On entry : 0/0
 10471 ;;		On exit  : 0/0
 10472 ;;		Unchanged: 0/0
 10473 ;; Data sizes:     COMMON   BANK0   BANK1   BANK3   BANK2
 10474 ;;      Params:         1       0       0       0       0
 10475 ;;      Locals:         1       0       0       0       0
 10476 ;;      Temps:          2       0       0       0       0
 10477 ;;      Totals:         4       0       0       0       0
 10478 ;;Total ram usage:        4 bytes
 10479 ;; Hardware stack levels used: 1
 10480 ;; Hardware stack levels required when called: 3
 10481 ;; This function calls:
 10482 ;;		_i2c_start
 10483 ;;		_i2c_stop
 10484 ;;		_i2c_write
 10485 ;; This function is called by:
 10486 ;;		_eeprom_at24c04_str_write
 10487 ;; This function uses a non-reentrant model
 10488 ;;
 10489                           
 10490     1342                     _eeprom_at24c04_byte_write:	
 10491                           ;psect for function _eeprom_at24c04_byte_write
 10492                           
 10493                           
 10494                           ;incstack = 0
 10495                           ; Regs used in _eeprom_at24c04_byte_write: [wreg+status,2+status,0+pclath+cstack]
 10496                           ;eeprom_at24c04_byte_write@memory_loc stored from wreg
 10497     1342  00F6               	movwf	eeprom_at24c04_byte_write@memory_loc
 10498     1343                     l4349:
 10499                           
 10500                           ;at24c04.c: 27: void eeprom_at24c04_byte_write(unsigned char memory_loc, unsigned char d
      +                          ata);at24c04.c: 28: {;at24c04.c: 29:     i2c_start();
 10501     1343  160A  118A  21A5  160A  118A  	fcall	_i2c_start
 10502                           
 10503                           ;at24c04.c: 30:     i2c_write(0xA0);
 10504     1348  30A0               	movlw	160
 10505     1349  160A  118A  21C1  160A  118A  	fcall	_i2c_write
 10506                           
 10507                           ;at24c04.c: 31:     i2c_write(memory_loc);
 10508     134E  0876               	movf	eeprom_at24c04_byte_write@memory_loc,w
 10509     134F  160A  118A  21C1  160A  118A  	fcall	_i2c_write
 10510                           
 10511                           ;at24c04.c: 32:     i2c_write(data);
 10512     1354  0873               	movf	eeprom_at24c04_byte_write@data,w
 10513     1355  160A  118A  21C1  160A  118A  	fcall	_i2c_write
 10514                           
 10515                           ;at24c04.c: 33:     i2c_stop();
 10516     135A  160A  118A  21AE  160A  118A  	fcall	_i2c_stop
 10517     135F                     l4351:
 10518                           
 10519                           ;at24c04.c: 35:     _delay((unsigned long)((3)*(20000000/4000.0)));
 10520     135F  3014               	movlw	20
 10521     1360  00F5               	movwf	??_eeprom_at24c04_byte_write+1
 10522     1361  3079               	movlw	121
 10523     1362  00F4               	movwf	??_eeprom_at24c04_byte_write
 10524     1363                     u6407:
 10525     1363  0BF4               	decfsz	??_eeprom_at24c04_byte_write,f
 10526     1364  2B63               	goto	u6407
 10527     1365  0BF5               	decfsz	??_eeprom_at24c04_byte_write+1,f
 10528     1366  2B63               	goto	u6407
 10529     1367  2B68               	nop2
 10530     1368                     l577:
 10531     1368  0008               	return
 10532     1369                     __end_of_eeprom_at24c04_byte_write:
 10533                           
 10534                           	psect	text41
 10535     11C1                     __ptext41:	
 10536 ;; *************** function _i2c_write *****************
 10537 ;; Defined at:
 10538 ;;		line 65 in file "i2c.c"
 10539 ;; Parameters:    Size  Location     Type
 10540 ;;  data            1    wreg     unsigned char 
 10541 ;; Auto vars:     Size  Location     Type
 10542 ;;  data            1    2[COMMON] unsigned char 
 10543 ;; Return value:  Size  Location     Type
 10544 ;;                  2  194[None  ] int 
 10545 ;; Registers used:
 10546 ;;		wreg, status,2, status,0, pclath, cstack
 10547 ;; Tracked objects:
 10548 ;;		On entry : 0/0
 10549 ;;		On exit  : 0/0
 10550 ;;		Unchanged: 0/0
 10551 ;; Data sizes:     COMMON   BANK0   BANK1   BANK3   BANK2
 10552 ;;      Params:         0       0       0       0       0
 10553 ;;      Locals:         1       0       0       0       0
 10554 ;;      Temps:          0       0       0       0       0
 10555 ;;      Totals:         1       0       0       0       0
 10556 ;;Total ram usage:        1 bytes
 10557 ;; Hardware stack levels used: 1
 10558 ;; Hardware stack levels required when called: 2
 10559 ;; This function calls:
 10560 ;;		_i2c_wait_for_idle
 10561 ;; This function is called by:
 10562 ;;		_read_ds1307
 10563 ;;		_write_ds1307
 10564 ;;		_eeprom_at24c04_randon_read
 10565 ;;		_eeprom_at24c04_byte_write
 10566 ;; This function uses a non-reentrant model
 10567 ;;
 10568                           
 10569     11C1                     _i2c_write:	
 10570                           ;psect for function _i2c_write
 10571                           
 10572                           
 10573                           ;incstack = 0
 10574                           ; Regs used in _i2c_write: [wreg+status,2+status,0+pclath+cstack]
 10575                           ;i2c_write@data stored from wreg
 10576     11C1  00F2               	movwf	i2c_write@data
 10577     11C2                     l4311:
 10578                           
 10579                           ;i2c.c: 65: int i2c_write(unsigned char data);i2c.c: 66: {;i2c.c: 67:     i2c_wait_for_i
      +                          dle();
 10580     11C2  160A  118A  21ED  160A  118A  	fcall	_i2c_wait_for_idle
 10581     11C7                     l4313:
 10582                           
 10583                           ;i2c.c: 68:     SSPBUF = data;
 10584     11C7  0872               	movf	i2c_write@data,w
 10585     11C8  1283               	bcf	3,5	;RP0=0, select bank0
 10586     11C9  1303               	bcf	3,6	;RP1=0, select bank0
 10587     11CA  0093               	movwf	19	;volatile
 10588     11CB                     l4315:
 10589     11CB                     l261:	
 10590                           ;i2c.c: 70:     return !ACKSTAT;;	Return value of _i2c_write is never used
 10591                           
 10592     11CB  0008               	return
 10593     11CC                     __end_of_i2c_write:
 10594                           
 10595                           	psect	text42
 10596     11AE                     __ptext42:	
 10597 ;; *************** function _i2c_stop *****************
 10598 ;; Defined at:
 10599 ;;		line 35 in file "i2c.c"
 10600 ;; Parameters:    Size  Location     Type
 10601 ;;		None
 10602 ;; Auto vars:     Size  Location     Type
 10603 ;;		None
 10604 ;; Return value:  Size  Location     Type
 10605 ;;                  1    wreg      void 
 10606 ;; Registers used:
 10607 ;;		wreg, status,2, status,0, pclath, cstack
 10608 ;; Tracked objects:
 10609 ;;		On entry : 0/0
 10610 ;;		On exit  : 0/0
 10611 ;;		Unchanged: 0/0
 10612 ;; Data sizes:     COMMON   BANK0   BANK1   BANK3   BANK2
 10613 ;;      Params:         0       0       0       0       0
 10614 ;;      Locals:         0       0       0       0       0
 10615 ;;      Temps:          0       0       0       0       0
 10616 ;;      Totals:         0       0       0       0       0
 10617 ;;Total ram usage:        0 bytes
 10618 ;; Hardware stack levels used: 1
 10619 ;; Hardware stack levels required when called: 2
 10620 ;; This function calls:
 10621 ;;		_i2c_wait_for_idle
 10622 ;; This function is called by:
 10623 ;;		_read_ds1307
 10624 ;;		_write_ds1307
 10625 ;;		_i2c_rep_start
 10626 ;;		_eeprom_at24c04_randon_read
 10627 ;;		_eeprom_at24c04_byte_write
 10628 ;; This function uses a non-reentrant model
 10629 ;;
 10630                           
 10631     11AE                     _i2c_stop:	
 10632                           ;psect for function _i2c_stop
 10633                           
 10634     11AE                     l4307:	
 10635                           ;incstack = 0
 10636                           ; Regs used in _i2c_stop: [wreg+status,2+status,0+pclath+cstack]
 10637                           
 10638                           
 10639                           ;i2c.c: 37:     i2c_wait_for_idle();
 10640     11AE  160A  118A  21ED  160A  118A  	fcall	_i2c_wait_for_idle
 10641     11B3                     l4309:
 10642                           
 10643                           ;i2c.c: 38:     PEN = 1;
 10644     11B3  1683               	bsf	3,5	;RP0=1, select bank1
 10645     11B4  1303               	bcf	3,6	;RP1=0, select bank1
 10646     11B5  1511               	bsf	17,2	;volatile
 10647     11B6                     l253:
 10648     11B6  0008               	return
 10649     11B7                     __end_of_i2c_stop:
 10650                           
 10651                           	psect	text43
 10652     11A5                     __ptext43:	
 10653 ;; *************** function _i2c_start *****************
 10654 ;; Defined at:
 10655 ;;		line 22 in file "i2c.c"
 10656 ;; Parameters:    Size  Location     Type
 10657 ;;		None
 10658 ;; Auto vars:     Size  Location     Type
 10659 ;;		None
 10660 ;; Return value:  Size  Location     Type
 10661 ;;                  1    wreg      void 
 10662 ;; Registers used:
 10663 ;;		wreg, status,2, status,0, pclath, cstack
 10664 ;; Tracked objects:
 10665 ;;		On entry : 0/0
 10666 ;;		On exit  : 0/0
 10667 ;;		Unchanged: 0/0
 10668 ;; Data sizes:     COMMON   BANK0   BANK1   BANK3   BANK2
 10669 ;;      Params:         0       0       0       0       0
 10670 ;;      Locals:         0       0       0       0       0
 10671 ;;      Temps:          0       0       0       0       0
 10672 ;;      Totals:         0       0       0       0       0
 10673 ;;Total ram usage:        0 bytes
 10674 ;; Hardware stack levels used: 1
 10675 ;; Hardware stack levels required when called: 2
 10676 ;; This function calls:
 10677 ;;		_i2c_wait_for_idle
 10678 ;; This function is called by:
 10679 ;;		_read_ds1307
 10680 ;;		_write_ds1307
 10681 ;;		_i2c_rep_start
 10682 ;;		_eeprom_at24c04_randon_read
 10683 ;;		_eeprom_at24c04_byte_write
 10684 ;; This function uses a non-reentrant model
 10685 ;;
 10686                           
 10687     11A5                     _i2c_start:	
 10688                           ;psect for function _i2c_start
 10689                           
 10690     11A5                     l4303:	
 10691                           ;incstack = 0
 10692                           ; Regs used in _i2c_start: [wreg+status,2+status,0+pclath+cstack]
 10693                           
 10694                           
 10695                           ;i2c.c: 24:     i2c_wait_for_idle();
 10696     11A5  160A  118A  21ED  160A  118A  	fcall	_i2c_wait_for_idle
 10697     11AA                     l4305:
 10698                           
 10699                           ;i2c.c: 25:     SEN = 1;
 10700     11AA  1683               	bsf	3,5	;RP0=1, select bank1
 10701     11AB  1303               	bcf	3,6	;RP1=0, select bank1
 10702     11AC  1411               	bsf	17,0	;volatile
 10703     11AD                     l247:
 10704     11AD  0008               	return
 10705     11AE                     __end_of_i2c_start:
 10706                           
 10707                           	psect	text44
 10708     11ED                     __ptext44:	
 10709 ;; *************** function _i2c_wait_for_idle *****************
 10710 ;; Defined at:
 10711 ;;		line 16 in file "i2c.c"
 10712 ;; Parameters:    Size  Location     Type
 10713 ;;		None
 10714 ;; Auto vars:     Size  Location     Type
 10715 ;;		None
 10716 ;; Return value:  Size  Location     Type
 10717 ;;                  1    wreg      void 
 10718 ;; Registers used:
 10719 ;;		wreg, status,2
 10720 ;; Tracked objects:
 10721 ;;		On entry : 0/0
 10722 ;;		On exit  : 0/0
 10723 ;;		Unchanged: 0/0
 10724 ;; Data sizes:     COMMON   BANK0   BANK1   BANK3   BANK2
 10725 ;;      Params:         0       0       0       0       0
 10726 ;;      Locals:         0       0       0       0       0
 10727 ;;      Temps:          0       0       0       0       0
 10728 ;;      Totals:         0       0       0       0       0
 10729 ;;Total ram usage:        0 bytes
 10730 ;; Hardware stack levels used: 1
 10731 ;; Hardware stack levels required when called: 1
 10732 ;; This function calls:
 10733 ;;		Nothing
 10734 ;; This function is called by:
 10735 ;;		_i2c_start
 10736 ;;		_i2c_stop
 10737 ;;		_i2c_read
 10738 ;;		_i2c_write
 10739 ;; This function uses a non-reentrant model
 10740 ;;
 10741                           
 10742     11ED                     _i2c_wait_for_idle:	
 10743                           ;psect for function _i2c_wait_for_idle
 10744                           
 10745     11ED                     l4299:	
 10746                           ;incstack = 0
 10747                           ; Regs used in _i2c_wait_for_idle: [wreg+status,2]
 10748                           
 10749     11ED                     l241:	
 10750                           ;i2c.c: 19:     while (R_nW || (SSPCON2 & 0x1F));
 10751                           
 10752     11ED  1683               	bsf	3,5	;RP0=1, select bank1
 10753     11EE  1303               	bcf	3,6	;RP1=0, select bank1
 10754     11EF  1914               	btfsc	20,2	;volatile
 10755     11F0  29F2               	goto	u4201
 10756     11F1  29F3               	goto	u4200
 10757     11F2                     u4201:
 10758     11F2  29ED               	goto	l241
 10759     11F3                     u4200:
 10760     11F3                     l4301:
 10761     11F3  0811               	movf	17,w	;volatile
 10762     11F4  391F               	andlw	31
 10763     11F5  1D03               	btfss	3,2
 10764     11F6  29F8               	goto	u4211
 10765     11F7  29F9               	goto	u4210
 10766     11F8                     u4211:
 10767     11F8  29ED               	goto	l241
 10768     11F9                     u4210:
 10769     11F9                     l244:
 10770     11F9  0008               	return
 10771     11FA                     __end_of_i2c_wait_for_idle:
 10772                           
 10773                           	psect	text45
 10774     1214                     __ptext45:	
 10775 ;; *************** function _clear_screen *****************
 10776 ;; Defined at:
 10777 ;;		line 529 in file "cbb.c"
 10778 ;; Parameters:    Size  Location     Type
 10779 ;;		None
 10780 ;; Auto vars:     Size  Location     Type
 10781 ;;		None
 10782 ;; Return value:  Size  Location     Type
 10783 ;;                  1    wreg      void 
 10784 ;; Registers used:
 10785 ;;		wreg, status,2, status,0, pclath, cstack
 10786 ;; Tracked objects:
 10787 ;;		On entry : 0/0
 10788 ;;		On exit  : 0/0
 10789 ;;		Unchanged: 0/0
 10790 ;; Data sizes:     COMMON   BANK0   BANK1   BANK3   BANK2
 10791 ;;      Params:         0       0       0       0       0
 10792 ;;      Locals:         0       0       0       0       0
 10793 ;;      Temps:          2       0       0       0       0
 10794 ;;      Totals:         2       0       0       0       0
 10795 ;;Total ram usage:        2 bytes
 10796 ;; Hardware stack levels used: 1
 10797 ;; Hardware stack levels required when called: 2
 10798 ;; This function calls:
 10799 ;;		_clcd_write
 10800 ;; This function is called by:
 10801 ;;		_main
 10802 ;;		_change_pwd
 10803 ;;		_set_time
 10804 ;;		_login
 10805 ;;		_login_menu
 10806 ;; This function uses a non-reentrant model
 10807 ;;
 10808                           
 10809     1214                     _clear_screen:	
 10810                           ;psect for function _clear_screen
 10811                           
 10812     1214                     l4495:	
 10813                           ;incstack = 0
 10814                           ; Regs used in _clear_screen: [wreg+status,2+status,0+pclath+cstack]
 10815                           
 10816                           
 10817                           ;cbb.c: 531:     clcd_write(0x01, 0);
 10818     1214  01F2               	clrf	clcd_write@mode
 10819     1215  3001               	movlw	1
 10820     1216  160A  118A  22B6  160A  118A  	fcall	_clcd_write
 10821     121B                     l4497:
 10822                           
 10823                           ;cbb.c: 532:     _delay((unsigned long)((500)*(20000000/4000000.0)));
 10824     121B  3004               	movlw	4
 10825     121C  00F7               	movwf	??_clear_screen+1
 10826     121D  303D               	movlw	61
 10827     121E  00F6               	movwf	??_clear_screen
 10828     121F                     u6417:
 10829     121F  0BF6               	decfsz	??_clear_screen,f
 10830     1220  2A1F               	goto	u6417
 10831     1221  0BF7               	decfsz	??_clear_screen+1,f
 10832     1222  2A1F               	goto	u6417
 10833     1223  2A24               	nop2
 10834     1224                     l516:
 10835     1224  0008               	return
 10836     1225                     __end_of_clear_screen:
 10837                           
 10838                           	psect	text46
 10839     126E                     __ptext46:	
 10840 ;; *************** function _clcd_putch *****************
 10841 ;; Defined at:
 10842 ;;		line 49 in file "clcd.c"
 10843 ;; Parameters:    Size  Location     Type
 10844 ;;  data            1    wreg     const unsigned char 
 10845 ;;  addr            1    9[COMMON] unsigned char 
 10846 ;; Auto vars:     Size  Location     Type
 10847 ;;  data            1    4[BANK0 ] const unsigned char 
 10848 ;; Return value:  Size  Location     Type
 10849 ;;                  1    wreg      void 
 10850 ;; Registers used:
 10851 ;;		wreg, status,2, status,0, pclath, cstack
 10852 ;; Tracked objects:
 10853 ;;		On entry : 0/0
 10854 ;;		On exit  : 0/0
 10855 ;;		Unchanged: 0/0
 10856 ;; Data sizes:     COMMON   BANK0   BANK1   BANK3   BANK2
 10857 ;;      Params:         1       0       0       0       0
 10858 ;;      Locals:         0       1       0       0       0
 10859 ;;      Temps:          0       0       0       0       0
 10860 ;;      Totals:         1       1       0       0       0
 10861 ;;Total ram usage:        2 bytes
 10862 ;; Hardware stack levels used: 1
 10863 ;; Hardware stack levels required when called: 2
 10864 ;; This function calls:
 10865 ;;		_clcd_write
 10866 ;; This function is called by:
 10867 ;;		_display_time
 10868 ;;		_display_dashboard
 10869 ;;		_view_log
 10870 ;;		_change_pwd
 10871 ;;		_set_time
 10872 ;;		_login
 10873 ;;		_login_menu
 10874 ;; This function uses a non-reentrant model
 10875 ;;
 10876                           
 10877     126E                     _clcd_putch:	
 10878                           ;psect for function _clcd_putch
 10879                           
 10880                           
 10881                           ;incstack = 0
 10882                           ; Regs used in _clcd_putch: [wreg+status,2+status,0+pclath+cstack]
 10883                           ;clcd_putch@data stored from wreg
 10884     126E  1283               	bcf	3,5	;RP0=0, select bank0
 10885     126F  1303               	bcf	3,6	;RP1=0, select bank0
 10886     1270  00A4               	movwf	clcd_putch@data
 10887     1271                     l4383:
 10888                           
 10889                           ;clcd.c: 49: void clcd_putch(const char data, unsigned char addr);clcd.c: 50: {;clcd.c: 
      +                          51:     clcd_write(addr, 0);
 10890     1271  01F2               	clrf	clcd_write@mode
 10891     1272  0879               	movf	clcd_putch@addr,w
 10892     1273  160A  118A  22B6  160A  118A  	fcall	_clcd_write
 10893                           
 10894                           ;clcd.c: 52:     clcd_write(data, 1);
 10895     1278  01F2               	clrf	clcd_write@mode
 10896     1279  0AF2               	incf	clcd_write@mode,f
 10897     127A  1283               	bcf	3,5	;RP0=0, select bank0
 10898     127B  1303               	bcf	3,6	;RP1=0, select bank0
 10899     127C  0824               	movf	clcd_putch@data,w
 10900     127D  160A  118A  22B6  160A  118A  	fcall	_clcd_write
 10901     1282                     l180:
 10902     1282  0008               	return
 10903     1283                     __end_of_clcd_putch:
 10904                           
 10905                           	psect	text47
 10906     13BF                     __ptext47:	
 10907 ;; *************** function _clcd_print *****************
 10908 ;; Defined at:
 10909 ;;		line 55 in file "clcd.c"
 10910 ;; Parameters:    Size  Location     Type
 10911 ;;  str             2    6[COMMON] PTR const unsigned char 
 10912 ;;		 -> STR_41(9), STR_40(11), STR_39(13), STR_38(10), 
 10913 ;;		 -> STR_37(9), STR_36(15), STR_35(15), STR_34(15), 
 10914 ;;		 -> STR_33(4), STR_32(10), STR_31(16), STR_28(3), 
 10915 ;;		 -> STR_27(3), STR_26(3), STR_25(9), STR_24(15), 
 10916 ;;		 -> STR_23(15), STR_22(5), STR_20(17), STR_19(17), 
 10917 ;;		 -> STR_18(17), STR_17(13), STR_16(13), STR_15(10), 
 10918 ;;		 -> STR_14(16), STR_13(12), STR_12(18), STR_11(6), 
 10919 ;;		 -> STR_9(16), main@event(3), 
 10920 ;;  addr            1    8[COMMON] unsigned char 
 10921 ;; Auto vars:     Size  Location     Type
 10922 ;;		None
 10923 ;; Return value:  Size  Location     Type
 10924 ;;                  1    wreg      void 
 10925 ;; Registers used:
 10926 ;;		wreg, fsr0l, fsr0h, status,2, status,0, btemp+1, pclath, cstack
 10927 ;; Tracked objects:
 10928 ;;		On entry : 0/0
 10929 ;;		On exit  : 0/0
 10930 ;;		Unchanged: 0/0
 10931 ;; Data sizes:     COMMON   BANK0   BANK1   BANK3   BANK2
 10932 ;;      Params:         3       0       0       0       0
 10933 ;;      Locals:         0       0       0       0       0
 10934 ;;      Temps:          0       0       0       0       0
 10935 ;;      Totals:         3       0       0       0       0
 10936 ;;Total ram usage:        3 bytes
 10937 ;; Hardware stack levels used: 1
 10938 ;; Hardware stack levels required when called: 2
 10939 ;; This function calls:
 10940 ;;		_clcd_write
 10941 ;; This function is called by:
 10942 ;;		_main
 10943 ;;		_display_dashboard
 10944 ;;		_view_log
 10945 ;;		_change_pwd
 10946 ;;		_set_time
 10947 ;;		_login
 10948 ;;		_login_menu
 10949 ;; This function uses a non-reentrant model
 10950 ;;
 10951                           
 10952     13BF                     _clcd_print:	
 10953                           ;psect for function _clcd_print
 10954                           
 10955     13BF                     l4499:	
 10956                           ;incstack = 0
 10957                           ; Regs used in _clcd_print: [wreg-fsr0h+status,2+status,0+btemp+1+pclath+cstack]
 10958                           
 10959                           
 10960                           ;clcd.c: 55: void clcd_print(const char *str, unsigned char addr);clcd.c: 56: {;clcd.c: 
      +                          57:     clcd_write(addr, 0);
 10961     13BF  01F2               	clrf	clcd_write@mode
 10962     13C0  0878               	movf	clcd_print@addr,w
 10963     13C1  160A  118A  22B6  160A  118A  	fcall	_clcd_write
 10964                           
 10965                           ;clcd.c: 59:     while (*str != '\0')
 10966     13C6  2BDD               	goto	l4505
 10967     13C7                     l4501:
 10968                           
 10969                           ;clcd.c: 60:     {;clcd.c: 61:         clcd_write(*str, 1);
 10970     13C7  01F2               	clrf	clcd_write@mode
 10971     13C8  0AF2               	incf	clcd_write@mode,f
 10972     13C9  0877               	movf	clcd_print@str+1,w
 10973     13CA  00FF               	movwf	btemp+1
 10974     13CB  0876               	movf	clcd_print@str,w
 10975     13CC  0084               	movwf	4
 10976     13CD  160A  118A  216E  160A  118A  	fcall	stringtab
 10977     13D2  160A  118A  22B6  160A  118A  	fcall	_clcd_write
 10978     13D7                     l4503:
 10979                           
 10980                           ;clcd.c: 62:         str++;
 10981     13D7  3001               	movlw	1
 10982     13D8  07F6               	addwf	clcd_print@str,f
 10983     13D9  1803               	skipnc
 10984     13DA  0AF7               	incf	clcd_print@str+1,f
 10985     13DB  3000               	movlw	0
 10986     13DC  07F7               	addwf	clcd_print@str+1,f
 10987     13DD                     l4505:
 10988                           
 10989                           ;clcd.c: 59:     while (*str != '\0')
 10990     13DD  0877               	movf	clcd_print@str+1,w
 10991     13DE  1283               	bcf	3,5	;RP0=0, select bank0
 10992     13DF  1303               	bcf	3,6	;RP1=0, select bank0
 10993     13E0  00FF               	movwf	btemp+1
 10994     13E1  0876               	movf	clcd_print@str,w
 10995     13E2  0084               	movwf	4
 10996     13E3  160A  118A  216E  160A  118A  	fcall	stringtab
 10997     13E8  3A00               	xorlw	0
 10998     13E9  1D03               	skipz
 10999     13EA  2BEC               	goto	u4441
 11000     13EB  2BED               	goto	u4440
 11001     13EC                     u4441:
 11002     13EC  2BC7               	goto	l4501
 11003     13ED                     u4440:
 11004     13ED                     l186:
 11005     13ED  0008               	return
 11006     13EE                     __end_of_clcd_print:
 11007                           
 11008                           	psect	text48
 11009     12B6                     __ptext48:	
 11010 ;; *************** function _clcd_write *****************
 11011 ;; Defined at:
 11012 ;;		line 4 in file "clcd.c"
 11013 ;; Parameters:    Size  Location     Type
 11014 ;;  byte            1    wreg     unsigned char 
 11015 ;;  mode            1    2[COMMON] unsigned char 
 11016 ;; Auto vars:     Size  Location     Type
 11017 ;;  byte            1    5[COMMON] unsigned char 
 11018 ;; Return value:  Size  Location     Type
 11019 ;;                  1    wreg      void 
 11020 ;; Registers used:
 11021 ;;		wreg
 11022 ;; Tracked objects:
 11023 ;;		On entry : 0/0
 11024 ;;		On exit  : 0/0
 11025 ;;		Unchanged: 0/0
 11026 ;; Data sizes:     COMMON   BANK0   BANK1   BANK3   BANK2
 11027 ;;      Params:         1       0       0       0       0
 11028 ;;      Locals:         1       0       0       0       0
 11029 ;;      Temps:          2       0       0       0       0
 11030 ;;      Totals:         4       0       0       0       0
 11031 ;;Total ram usage:        4 bytes
 11032 ;; Hardware stack levels used: 1
 11033 ;; Hardware stack levels required when called: 1
 11034 ;; This function calls:
 11035 ;;		Nothing
 11036 ;; This function is called by:
 11037 ;;		_main
 11038 ;;		_init_display_controller
 11039 ;;		_clcd_putch
 11040 ;;		_clcd_print
 11041 ;;		_view_log
 11042 ;;		_change_pwd
 11043 ;;		_clear_screen
 11044 ;;		_login
 11045 ;; This function uses a non-reentrant model
 11046 ;;
 11047                           
 11048     12B6                     _clcd_write:	
 11049                           ;psect for function _clcd_write
 11050                           
 11051                           
 11052                           ;incstack = 0
 11053                           ; Regs used in _clcd_write: [wreg]
 11054                           ;clcd_write@byte stored from wreg
 11055     12B6  00F5               	movwf	clcd_write@byte
 11056     12B7                     l4335:
 11057                           
 11058                           ;clcd.c: 4: void clcd_write(unsigned char byte, unsigned char mode);clcd.c: 5: {;clcd.c:
      +                           6:     RE2 = mode;
 11059     12B7  1872               	btfsc	clcd_write@mode,0
 11060     12B8  2ABA               	goto	u4231
 11061     12B9  2ABE               	goto	u4230
 11062     12BA                     u4231:
 11063     12BA  1283               	bcf	3,5	;RP0=0, select bank0
 11064     12BB  1303               	bcf	3,6	;RP1=0, select bank0
 11065     12BC  1509               	bsf	9,2	;volatile
 11066     12BD  2AC1               	goto	u4244
 11067     12BE                     u4230:
 11068     12BE  1283               	bcf	3,5	;RP0=0, select bank0
 11069     12BF  1303               	bcf	3,6	;RP1=0, select bank0
 11070     12C0  1109               	bcf	9,2	;volatile
 11071     12C1                     u4244:
 11072     12C1                     l4337:
 11073                           
 11074                           ;clcd.c: 7:     PORTD = byte;
 11075     12C1  0875               	movf	clcd_write@byte,w
 11076     12C2  0088               	movwf	8	;volatile
 11077     12C3                     l4339:
 11078                           
 11079                           ;clcd.c: 9:     RE1 = 1;
 11080     12C3  1489               	bsf	9,1	;volatile
 11081                           
 11082                           ;clcd.c: 10:     _delay((unsigned long)((100)*(20000000/4000000.0)));
 11083     12C4  30A6               	movlw	166
 11084     12C5  00F3               	movwf	??_clcd_write
 11085     12C6                     u6427:
 11086     12C6  0BF3               	decfsz	??_clcd_write,f
 11087     12C7  2AC6               	goto	u6427
 11088     12C8  0000               	nop
 11089     12C9                     l4341:
 11090                           
 11091                           ;clcd.c: 11:     RE1 = 0;
 11092     12C9  1283               	bcf	3,5	;RP0=0, select bank0
 11093     12CA  1303               	bcf	3,6	;RP1=0, select bank0
 11094     12CB  1089               	bcf	9,1	;volatile
 11095                           
 11096                           ;clcd.c: 13:     _delay((unsigned long)((4100)*(20000000/4000000.0)));
 11097     12CC  301B               	movlw	27
 11098     12CD  00F4               	movwf	??_clcd_write+1
 11099     12CE  309E               	movlw	158
 11100     12CF  00F3               	movwf	??_clcd_write
 11101     12D0                     u6437:
 11102     12D0  0BF3               	decfsz	??_clcd_write,f
 11103     12D1  2AD0               	goto	u6437
 11104     12D2  0BF4               	decfsz	??_clcd_write+1,f
 11105     12D3  2AD0               	goto	u6437
 11106     12D4  0000               	nop
 11107     12D5                     l171:
 11108     12D5  0008               	return
 11109     12D6                     __end_of_clcd_write:
 11110                           
 11111                           	psect	text49
 11112     1569                     __ptext49:	
 11113 ;; *************** function ___lwdiv *****************
 11114 ;; Defined at:
 11115 ;;		line 5 in file "C:\Program Files\Microchip\xc8\v2.40\pic\sources\c90\common\lwdiv.c"
 11116 ;; Parameters:    Size  Location     Type
 11117 ;;  divisor         2    6[COMMON] unsigned int 
 11118 ;;  dividend        2    8[COMMON] unsigned int 
 11119 ;; Auto vars:     Size  Location     Type
 11120 ;;  quotient        2    2[BANK0 ] unsigned int 
 11121 ;;  counter         1    1[BANK0 ] unsigned char 
 11122 ;; Return value:  Size  Location     Type
 11123 ;;                  2    6[COMMON] unsigned int 
 11124 ;; Registers used:
 11125 ;;		wreg, status,2, status,0
 11126 ;; Tracked objects:
 11127 ;;		On entry : 0/0
 11128 ;;		On exit  : 0/0
 11129 ;;		Unchanged: 0/0
 11130 ;; Data sizes:     COMMON   BANK0   BANK1   BANK3   BANK2
 11131 ;;      Params:         4       0       0       0       0
 11132 ;;      Locals:         0       3       0       0       0
 11133 ;;      Temps:          0       1       0       0       0
 11134 ;;      Totals:         4       4       0       0       0
 11135 ;;Total ram usage:        8 bytes
 11136 ;; Hardware stack levels used: 1
 11137 ;; Hardware stack levels required when called: 1
 11138 ;; This function calls:
 11139 ;;		Nothing
 11140 ;; This function is called by:
 11141 ;;		_main
 11142 ;; This function uses a non-reentrant model
 11143 ;;
 11144                           
 11145     1569                     ___lwdiv:	
 11146                           ;psect for function ___lwdiv
 11147                           
 11148     1569                     l5357:	
 11149                           ;incstack = 0
 11150                           ; Regs used in ___lwdiv: [wreg+status,2+status,0]
 11151                           
 11152     1569  1283               	bcf	3,5	;RP0=0, select bank0
 11153     156A  1303               	bcf	3,6	;RP1=0, select bank0
 11154     156B  01A2               	clrf	___lwdiv@quotient
 11155     156C  01A3               	clrf	___lwdiv@quotient+1
 11156     156D                     l5359:
 11157     156D  0876               	movf	___lwdiv@divisor,w
 11158     156E  0477               	iorwf	___lwdiv@divisor+1,w
 11159     156F  1903               	btfsc	3,2
 11160     1570  2D72               	goto	u5821
 11161     1571  2D73               	goto	u5820
 11162     1572                     u5821:
 11163     1572  2DAA               	goto	l5379
 11164     1573                     u5820:
 11165     1573                     l5361:
 11166     1573  01A1               	clrf	___lwdiv@counter
 11167     1574  0AA1               	incf	___lwdiv@counter,f
 11168     1575  2D81               	goto	l5367
 11169     1576                     l5363:
 11170     1576  3001               	movlw	1
 11171     1577                     u5835:
 11172     1577  1003               	clrc
 11173     1578  0DF6               	rlf	___lwdiv@divisor,f
 11174     1579  0DF7               	rlf	___lwdiv@divisor+1,f
 11175     157A  3EFF               	addlw	-1
 11176     157B  1D03               	skipz
 11177     157C  2D77               	goto	u5835
 11178     157D                     l5365:
 11179     157D  3001               	movlw	1
 11180     157E  00A0               	movwf	??___lwdiv
 11181     157F  0820               	movf	??___lwdiv,w
 11182     1580  07A1               	addwf	___lwdiv@counter,f
 11183     1581                     l5367:
 11184     1581  1FF7               	btfss	___lwdiv@divisor+1,7
 11185     1582  2D84               	goto	u5841
 11186     1583  2D85               	goto	u5840
 11187     1584                     u5841:
 11188     1584  2D76               	goto	l5363
 11189     1585                     u5840:
 11190     1585                     l5369:
 11191     1585  3001               	movlw	1
 11192     1586                     u5855:
 11193     1586  1003               	clrc
 11194     1587  0DA2               	rlf	___lwdiv@quotient,f
 11195     1588  0DA3               	rlf	___lwdiv@quotient+1,f
 11196     1589  3EFF               	addlw	-1
 11197     158A  1D03               	skipz
 11198     158B  2D86               	goto	u5855
 11199     158C  0877               	movf	___lwdiv@divisor+1,w
 11200     158D  0279               	subwf	___lwdiv@dividend+1,w
 11201     158E  1D03               	skipz
 11202     158F  2D92               	goto	u5865
 11203     1590  0876               	movf	___lwdiv@divisor,w
 11204     1591  0278               	subwf	___lwdiv@dividend,w
 11205     1592                     u5865:
 11206     1592  1C03               	skipc
 11207     1593  2D95               	goto	u5861
 11208     1594  2D96               	goto	u5860
 11209     1595                     u5861:
 11210     1595  2D9D               	goto	l5375
 11211     1596                     u5860:
 11212     1596                     l5371:
 11213     1596  0876               	movf	___lwdiv@divisor,w
 11214     1597  02F8               	subwf	___lwdiv@dividend,f
 11215     1598  0877               	movf	___lwdiv@divisor+1,w
 11216     1599  1C03               	skipc
 11217     159A  03F9               	decf	___lwdiv@dividend+1,f
 11218     159B  02F9               	subwf	___lwdiv@dividend+1,f
 11219     159C                     l5373:
 11220     159C  1422               	bsf	___lwdiv@quotient,0
 11221     159D                     l5375:
 11222     159D  3001               	movlw	1
 11223     159E                     u5875:
 11224     159E  1003               	clrc
 11225     159F  0CF7               	rrf	___lwdiv@divisor+1,f
 11226     15A0  0CF6               	rrf	___lwdiv@divisor,f
 11227     15A1  3EFF               	addlw	-1
 11228     15A2  1D03               	skipz
 11229     15A3  2D9E               	goto	u5875
 11230     15A4                     l5377:
 11231     15A4  3001               	movlw	1
 11232     15A5  02A1               	subwf	___lwdiv@counter,f
 11233     15A6  1D03               	btfss	3,2
 11234     15A7  2DA9               	goto	u5881
 11235     15A8  2DAA               	goto	u5880
 11236     15A9                     u5881:
 11237     15A9  2D85               	goto	l5369
 11238     15AA                     u5880:
 11239     15AA                     l5379:
 11240     15AA  0823               	movf	___lwdiv@quotient+1,w
 11241     15AB  00F7               	movwf	?___lwdiv+1
 11242     15AC  0822               	movf	___lwdiv@quotient,w
 11243     15AD  00F6               	movwf	?___lwdiv
 11244     15AE                     l1018:
 11245     15AE  0008               	return
 11246     15AF                     __end_of___lwdiv:
 11247                           
 11248                           	psect	text50
 11249     15AF                     __ptext50:	
 11250 ;; *************** function _isr *****************
 11251 ;; Defined at:
 11252 ;;		line 8 in file "isr.c"
 11253 ;; Parameters:    Size  Location     Type
 11254 ;;		None
 11255 ;; Auto vars:     Size  Location     Type
 11256 ;;		None
 11257 ;; Return value:  Size  Location     Type
 11258 ;;                  1    wreg      void 
 11259 ;; Registers used:
 11260 ;;		wreg, status,2, status,0
 11261 ;; Tracked objects:
 11262 ;;		On entry : 0/0
 11263 ;;		On exit  : 0/0
 11264 ;;		Unchanged: 0/0
 11265 ;; Data sizes:     COMMON   BANK0   BANK1   BANK3   BANK2
 11266 ;;      Params:         0       0       0       0       0
 11267 ;;      Locals:         0       0       0       0       0
 11268 ;;      Temps:          2       0       0       0       0
 11269 ;;      Totals:         2       0       0       0       0
 11270 ;;Total ram usage:        2 bytes
 11271 ;; Hardware stack levels used: 1
 11272 ;; This function calls:
 11273 ;;		Nothing
 11274 ;; This function is called by:
 11275 ;;		Interrupt level 1
 11276 ;; This function uses a non-reentrant model
 11277 ;;
 11278                           
 11279     15AF                     _isr:	
 11280                           ;psect for function _isr
 11281                           
 11282     15AF                     i1l4193:
 11283                           
 11284                           ;isr.c: 10:     static unsigned int count = 0;;isr.c: 12:     if (TMR2IF == 1)
 11285     15AF  1283               	bcf	3,5	;RP0=0, select bank0
 11286     15B0  1303               	bcf	3,6	;RP1=0, select bank0
 11287     15B1  1C8C               	btfss	12,1	;volatile
 11288     15B2  2DB4               	goto	u413_21
 11289     15B3  2DB5               	goto	u413_20
 11290     15B4                     u413_21:
 11291     15B4  2DDF               	goto	i1l4209
 11292     15B5                     u413_20:
 11293     15B5                     i1l4195:
 11294                           
 11295                           ;isr.c: 13:     {;isr.c: 14:         if (++count == 1250)
 11296     15B5  3001               	movlw	1
 11297     15B6  1683               	bsf	3,5	;RP0=1, select bank1
 11298     15B7  1303               	bcf	3,6	;RP1=0, select bank1
 11299     15B8  07B1               	addwf	isr@count^(0+128),f
 11300     15B9  1803               	skipnc
 11301     15BA  0AB2               	incf	(isr@count+1)^(0+128),f
 11302     15BB  3000               	movlw	0
 11303     15BC  07B2               	addwf	(isr@count+1)^(0+128),f
 11304     15BD  30E2               	movlw	226
 11305     15BE  0631               	xorwf	isr@count^(0+128),w
 11306     15BF  3004               	movlw	4
 11307     15C0  1903               	skipnz
 11308     15C1  0632               	xorwf	(isr@count+1)^(0+128),w
 11309     15C2  1D03               	btfss	3,2
 11310     15C3  2DC5               	goto	u414_21
 11311     15C4  2DC6               	goto	u414_20
 11312     15C5                     u414_21:
 11313     15C5  2DDD               	goto	i1l4207
 11314     15C6                     u414_20:
 11315     15C6                     i1l4197:
 11316                           
 11317                           ;isr.c: 15:         {;isr.c: 16:             count = 0;
 11318     15C6  01B1               	clrf	isr@count^(0+128)
 11319     15C7  01B2               	clrf	(isr@count+1)^(0+128)
 11320     15C8                     i1l4199:
 11321                           
 11322                           ;isr.c: 17:             if(sec > 0)
 11323     15C8  1283               	bcf	3,5	;RP0=0, select bank0
 11324     15C9  1303               	bcf	3,6	;RP1=0, select bank0
 11325     15CA  084B               	movf	_sec,w
 11326     15CB  1903               	btfsc	3,2
 11327     15CC  2DCE               	goto	u415_21
 11328     15CD  2DCF               	goto	u415_20
 11329     15CE                     u415_21:
 11330     15CE  2DD1               	goto	i1l606
 11331     15CF                     u415_20:
 11332     15CF                     i1l4201:
 11333                           
 11334                           ;isr.c: 18:             {;isr.c: 19:                 sec--;
 11335     15CF  3001               	movlw	1
 11336     15D0  02CB               	subwf	_sec,f
 11337     15D1                     i1l606:	
 11338                           ;isr.c: 20:             }
 11339                           
 11340                           
 11341                           ;isr.c: 21:             if(sec == 0 && return_time > 0)
 11342     15D1  084B               	movf	_sec,w
 11343     15D2  1D03               	btfss	3,2
 11344     15D3  2DD5               	goto	u416_21
 11345     15D4  2DD6               	goto	u416_20
 11346     15D5                     u416_21:
 11347     15D5  2DDD               	goto	i1l4207
 11348     15D6                     u416_20:
 11349     15D6                     i1l4203:
 11350     15D6  085C               	movf	_return_time,w
 11351     15D7  1903               	btfsc	3,2
 11352     15D8  2DDA               	goto	u417_21
 11353     15D9  2DDB               	goto	u417_20
 11354     15DA                     u417_21:
 11355     15DA  2DDD               	goto	i1l4207
 11356     15DB                     u417_20:
 11357     15DB                     i1l4205:
 11358                           
 11359                           ;isr.c: 22:             {;isr.c: 23:                 return_time--;
 11360     15DB  3001               	movlw	1
 11361     15DC  02DC               	subwf	_return_time,f
 11362     15DD                     i1l4207:
 11363                           
 11364                           ;isr.c: 29:         TMR2IF = 0;
 11365     15DD  1283               	bcf	3,5	;RP0=0, select bank0
 11366     15DE  108C               	bcf	12,1	;volatile
 11367     15DF                     i1l4209:
 11368                           
 11369                           ;isr.c: 31:     if (RCIF == 1)
 11370     15DF  1E8C               	btfss	12,5	;volatile
 11371     15E0  2DE2               	goto	u418_21
 11372     15E1  2DE3               	goto	u418_20
 11373     15E2                     u418_21:
 11374     15E2  2DEF               	goto	i1l610
 11375     15E3                     u418_20:
 11376     15E3                     i1l4211:
 11377                           
 11378                           ;isr.c: 32:     {;isr.c: 33:         if (OERR == 1)
 11379     15E3  1C98               	btfss	24,1	;volatile
 11380     15E4  2DE6               	goto	u419_21
 11381     15E5  2DE7               	goto	u419_20
 11382     15E6                     u419_21:
 11383     15E6  2DE8               	goto	i1l4215
 11384     15E7                     u419_20:
 11385     15E7                     i1l4213:
 11386                           
 11387                           ;isr.c: 34:             OERR = 0;
 11388     15E7  1098               	bcf	24,1	;volatile
 11389     15E8                     i1l4215:
 11390                           
 11391                           ;isr.c: 36:         ch = RCREG;
 11392     15E8  081A               	movf	26,w	;volatile
 11393     15E9  1683               	bsf	3,5	;RP0=1, select bank1
 11394     15EA  1303               	bcf	3,6	;RP1=0, select bank1
 11395     15EB  00BB               	movwf	_ch^(0+128)
 11396     15EC                     i1l4217:
 11397                           
 11398                           ;isr.c: 38:         RCIF = 0;
 11399     15EC  1283               	bcf	3,5	;RP0=0, select bank0
 11400     15ED  1303               	bcf	3,6	;RP1=0, select bank0
 11401     15EE  128C               	bcf	12,5	;volatile
 11402     15EF                     i1l610:
 11403     15EF  0871               	movf	??_isr+1,w
 11404     15F0  008A               	movwf	10
 11405     15F1  0E70               	swapf	??_isr,w
 11406     15F2  0083               	movwf	3
 11407     15F3  0EFE               	swapf	btemp,f
 11408     15F4  0E7E               	swapf	btemp,w
 11409     15F5  0009               	retfie
 11410     15F6                     __end_of_isr:
 11411     007E                     btemp	set	126	;btemp
 11412     007E                     wtemp0	set	126
 11413                           
 11414                           	psect	intentry
 11415     0004                     __pintentry:	
 11416                           ;incstack = 0
 11417                           ; Regs used in _isr: [wreg+status,2+status,0]
 11418                           
 11419     0004                     interrupt_function:
 11420     007E                     saved_w	set	btemp
 11421     0004  00FE               	movwf	btemp
 11422     0005  0E03               	swapf	3,w
 11423     0006  00F0               	movwf	??_isr
 11424     0007  080A               	movf	10,w
 11425     0008  00F1               	movwf	??_isr+1
 11426     0009  160A  118A  2DAF   	ljmp	_isr
 11427                           
 11428                           	psect	config
 11429                           
 11430                           ;Config register CONFIG @ 0x2007
 11431                           ;	Oscillator Selection bits
 11432                           ;	FOSC = 0x3, unprogrammed default
 11433                           ;	Watchdog Timer Enable bit
 11434                           ;	WDTE = OFF, WDT disabled
 11435                           ;	Power-up Timer Enable bit
 11436                           ;	PWRTE = 0x1, unprogrammed default
 11437                           ;	Brown-out Reset Enable bit
 11438                           ;	BOREN = 0x1, unprogrammed default
 11439                           ;	Low-Voltage (Single-Supply) In-Circuit Serial Programming Enable bit
 11440                           ;	LVP = 0x1, unprogrammed default
 11441                           ;	Data EEPROM Memory Code Protection bit
 11442                           ;	CPD = 0x1, unprogrammed default
 11443                           ;	Flash Program Memory Write Enable bits
 11444                           ;	WRT = 0x3, unprogrammed default
 11445                           ;	In-Circuit Debugger Mode bit
 11446                           ;	DEBUG = 0x1, unprogrammed default
 11447                           ;	Flash Program Memory Code Protection bit
 11448                           ;	CP = 0x1, unprogrammed default
 11449     2007                     	org	8199
 11450     2007  3FFB               	dw	16379

Data Sizes:
    Strings     366
    Constant    0
    Data        45
    BSS         115
    Persistent  0
    Stack       0

Auto Spaces:
    Space          Size  Autos    Used
    COMMON           14     10      12
    BANK0            80     25      62
    BANK1            80      0      77
    BANK3            96     22      66
    BANK2            96      0       0

Pointer List with Targets:

    strncpy@from	PTR const unsigned char  size(2) Largest target is 7
		 -> time(BANK1[7]), STR_10(CODE[3]), main@event(BANK3[3]), 

    strncpy@to	PTR unsigned char  size(1) Largest target is 11
		 -> log(BANK1[11]), 

    strncpy@cp	PTR unsigned char  size(1) Largest target is 11
		 -> log(BANK1[11]), 

    strncmp@s2	PTR const unsigned char  size(1) Largest target is 4
		 -> login@spassword(BANK1[4]), change_pwd@pwd1(BANK0[4]), 

    strncmp@s1	PTR const unsigned char  size(1) Largest target is 4
		 -> login@npassword(BANK1[4]), change_pwd@pwd(BANK0[4]), 

    strcpy@from	PTR const unsigned char  size(2) Largest target is 3
		 -> STR_8(CODE[3]), STR_6(CODE[3]), STR_5(CODE[3]), STR_4(CODE[3]), 
		 -> STR_3(CODE[3]), STR_2(CODE[3]), STR_1(CODE[3]), 

    strcpy@to	PTR unsigned char  size(1) Largest target is 3
		 -> main@event(BANK3[3]), 

    strcpy@cp	PTR unsigned char  size(1) Largest target is 3
		 -> main@event(BANK3[3]), 

    strcmp@s2	PTR const unsigned char  size(2) Largest target is 3
		 -> STR_21(CODE[3]), 

    strcmp@s1	PTR const unsigned char  size(1) Largest target is 3
		 -> main@event(BANK3[3]), 

    putss@s	PTR const unsigned char  size(2) Largest target is 16
		 -> STR_30(CODE[7]), STR_29(CODE[16]), 

    eeprom_at24c04_str_write@data	PTR unsigned char  size(2) Largest target is 11
		 -> change_pwd@pwd(BANK0[4]), log(BANK1[11]), STR_7(CODE[5]), 

    login_menu@menu	PTR unsigned char [5] size(2) Largest target is 13
		 -> STR_41(CODE[9]), STR_40(CODE[11]), STR_39(CODE[13]), STR_38(CODE[10]), 
		 -> STR_37(CODE[9]), 

    login_menu@F1154	PTR unsigned char [5] size(2) Largest target is 13
		 -> STR_41(CODE[9]), STR_40(CODE[11]), STR_39(CODE[13]), STR_38(CODE[10]), 
		 -> STR_37(CODE[9]), 

    log_car_event@event	PTR unsigned char  size(2) Largest target is 3
		 -> STR_10(CODE[3]), main@event(BANK3[3]), 

    sp__strncpy	PTR unsigned char  size(1) Largest target is 11
		 -> log(BANK1[11]), 

    display_dashboard@event	PTR unsigned char  size(1) Largest target is 3
		 -> main@event(BANK3[3]), 

    clcd_print@str	PTR const unsigned char  size(2) Largest target is 18
		 -> STR_41(CODE[9]), STR_40(CODE[11]), STR_39(CODE[13]), STR_38(CODE[10]), 
		 -> STR_37(CODE[9]), STR_36(CODE[15]), STR_35(CODE[15]), STR_34(CODE[15]), 
		 -> STR_33(CODE[4]), STR_32(CODE[10]), STR_31(CODE[16]), STR_28(CODE[3]), 
		 -> STR_27(CODE[3]), STR_26(CODE[3]), STR_25(CODE[9]), STR_24(CODE[15]), 
		 -> STR_23(CODE[15]), STR_22(CODE[5]), STR_20(CODE[17]), STR_19(CODE[17]), 
		 -> STR_18(CODE[17]), STR_17(CODE[13]), STR_16(CODE[13]), STR_15(CODE[10]), 
		 -> STR_14(CODE[16]), STR_13(CODE[12]), STR_12(CODE[18]), STR_11(CODE[6]), 
		 -> STR_9(CODE[16]), main@event(BANK3[3]), 

    sp__strcpy	PTR unsigned char  size(1) Largest target is 3
		 -> main@event(BANK3[3]), 

    main@gear	PTR unsigned char [6] size(2) Largest target is 3
		 -> STR_6(CODE[3]), STR_5(CODE[3]), STR_4(CODE[3]), STR_3(CODE[3]), 
		 -> STR_2(CODE[3]), STR_1(CODE[3]), 

    main@F1093	PTR unsigned char [6] size(2) Largest target is 3
		 -> STR_6(CODE[3]), STR_5(CODE[3]), STR_4(CODE[3]), STR_3(CODE[3]), 
		 -> STR_2(CODE[3]), STR_1(CODE[3]), 


Critical Paths under _main in COMMON

    _main->___lwdiv
    _main->_download_log
    _main->_eeprom_at24c04_str_write
    _view_log->_clcd_putch
    _set_time->_clcd_putch
    _login_menu->_clcd_putch
    _login->_clcd_putch
    _log_event->_eeprom_at24c04_str_write
    _init_uarts->___lldiv
    _init_i2c->___lldiv
    _init_ds1307->_read_ds1307
    _write_ds1307->_i2c_write
    _init_clcd->_init_display_controller
    _init_display_controller->_clcd_write
    _download_log->___awmod
    _putss->_putcharr
    _eeprom_at24c04_randon_read->_i2c_read
    _display_dashboard->_clcd_putch
    _display_time->_clcd_putch
    _get_time->_read_ds1307
    _read_ds1307->_i2c_read
    _change_pwd->_clcd_putch
    _change_pwd->_eeprom_at24c04_str_write
    _eeprom_at24c04_str_write->_eeprom_at24c04_byte_write
    _eeprom_at24c04_byte_write->_i2c_write
    _clear_screen->_clcd_write
    _clcd_putch->___awmod
    _clcd_print->_clcd_write
    ___lwdiv->_read_adc

Critical Paths under _isr in COMMON

    None.

Critical Paths under _main in BANK0

    _main->_login_menu
    _view_log->_clcd_putch
    _set_time->_clcd_putch
    _login_menu->_clcd_putch
    _login->_clcd_putch
    _log_car_event->___awdiv
    _log_event->_eeprom_at24c04_str_write
    _init_config->_init_i2c
    _init_config->_init_uarts
    _init_uarts->___lldiv
    _init_i2c->___lldiv
    _display_dashboard->_clcd_putch
    _display_time->_clcd_putch
    _change_pwd->_clcd_putch
    _clcd_putch->___awdiv

Critical Paths under _isr in BANK0

    None.

Critical Paths under _main in BANK1

    None.

Critical Paths under _isr in BANK1

    None.

Critical Paths under _main in BANK3

    None.

Critical Paths under _isr in BANK3

    None.

Critical Paths under _main in BANK2

    None.

Critical Paths under _isr in BANK2

    None.

Call Graph Tables:

 ---------------------------------------------------------------------------------
 (Depth) Function   	        Calls       Base Space   Used Autos Params    Refs
 ---------------------------------------------------------------------------------
 (0) _main                                                27    27      0  168614
                                             21 BANK0      4     4      0
                                              0 BANK3     22    22      0
                            ___lwdiv
                         _change_pwd
                         _clcd_print
                         _clcd_write
                          _clear_log
                       _clear_screen
                  _display_dashboard
                       _download_log
           _eeprom_at24c04_str_write
                        _init_config
                      _log_car_event
                              _login
                         _login_menu
                           _read_adc
                _read_digital_keypad
                           _set_time
                             _strcpy
                           _view_log
 ---------------------------------------------------------------------------------
 (1) _view_log                                            11     9      2   21276
                                              5 BANK0     11     9      2
                            ___awmod
                             ___bmul
                         _clcd_print
                         _clcd_putch
                         _clcd_write
         _eeprom_at24c04_randon_read
 ---------------------------------------------------------------------------------
 (2) _strcpy                                               5     3      2     487
                                              2 COMMON     5     3      2
 ---------------------------------------------------------------------------------
 (1) _set_time                                            10     9      1   23438
                                              5 BANK0     10     9      1
                            ___awdiv
                            ___awmod
                             ___bmul
                         _clcd_print
                         _clcd_putch
                       _clear_screen
                           _get_time
                       _write_ds1307
 ---------------------------------------------------------------------------------
 (1) _read_digital_keypad                                  2     2      0     158
                                              2 COMMON     1     1      0
 ---------------------------------------------------------------------------------
 (1) _read_adc                                             4     2      2      34
                                              2 COMMON     4     2      2
 ---------------------------------------------------------------------------------
 (1) _login_menu                                          16    15      1   17316
                                              5 BANK0     16    15      1
                         _clcd_print
                         _clcd_putch
                       _clear_screen
 ---------------------------------------------------------------------------------
 (1) _login                                                7     6      1   25611
                                              5 BANK0      6     5      1
                            ___awdiv
                            ___awmod
                         _clcd_print
                         _clcd_putch
                         _clcd_write
                       _clear_screen
         _eeprom_at24c04_randon_read
                            _strncmp
 ---------------------------------------------------------------------------------
 (1) _log_car_event                                        5     2      3    7922
                                              4 BANK0      5     2      3
                            ___awdiv
                            ___awmod
                           _get_time
                          _log_event
                            _strncpy
 ---------------------------------------------------------------------------------
 (3) _strncpy                                              9     5      4     634
                                              2 COMMON     7     3      4
                                              0 BANK0      2     2      0
 ---------------------------------------------------------------------------------
 (2) _log_event                                            2     2      0    1296
                                              1 BANK0      2     2      0
                             ___bmul
           _eeprom_at24c04_str_write
 ---------------------------------------------------------------------------------
 (1) _init_config                                          0     0      0    4798
                           _init_adc
                          _init_clcd
                _init_digital_keypad
                        _init_ds1307
                           _init_i2c
                        _init_timer2
                         _init_uarts
 ---------------------------------------------------------------------------------
 (2) _init_uarts                                           8     4      4     722
                                              6 BANK0      8     4      4
                            ___lldiv
 ---------------------------------------------------------------------------------
 (2) _init_timer2                                          0     0      0       0
 ---------------------------------------------------------------------------------
 (2) _init_i2c                                             8     4      4     722
                                              6 BANK0      8     4      4
                            ___lldiv
 ---------------------------------------------------------------------------------
 (3) ___lldiv                                             14     6      8     601
                                              2 COMMON     8     0      8
                                              0 BANK0      6     6      0
 ---------------------------------------------------------------------------------
 (2) _init_ds1307                                          1     1      0     682
                                              6 COMMON     1     1      0
                        _read_ds1307
                       _write_ds1307
 ---------------------------------------------------------------------------------
 (2) _write_ds1307                                         2     1      1     453
                                              3 COMMON     2     1      1
                          _i2c_start
                           _i2c_stop
                          _i2c_write
 ---------------------------------------------------------------------------------
 (2) _init_digital_keypad                                  0     0      0       0
 ---------------------------------------------------------------------------------
 (2) _init_clcd                                            0     0      0    2672
            _init_display_controller
 ---------------------------------------------------------------------------------
 (3) _init_display_controller                              2     2      0    2672
                                              6 COMMON     2     2      0
                         _clcd_write
 ---------------------------------------------------------------------------------
 (2) _init_adc                                             0     0      0       0
 ---------------------------------------------------------------------------------
 (1) _download_log                                        19    19      0    4572
                                              9 COMMON     1     1      0
                                              0 BANK0     16    16      0
                            ___awmod
                             ___bmul
         _eeprom_at24c04_randon_read
                           _putcharr
                              _putss
 ---------------------------------------------------------------------------------
 (2) _putss                                                2     0      2     276
                                              3 COMMON     2     0      2
                           _putcharr
 ---------------------------------------------------------------------------------
 (3) _putcharr                                             1     1      0      31
                                              2 COMMON     1     1      0
 ---------------------------------------------------------------------------------
 (2) _eeprom_at24c04_randon_read                           2     2      0     164
                                              4 COMMON     2     2      0
                           _i2c_read
                      _i2c_rep_start
                          _i2c_start
                           _i2c_stop
                          _i2c_write
 ---------------------------------------------------------------------------------
 (2) ___bmul                                               4     3      1     676
                                              2 COMMON     4     3      1
 ---------------------------------------------------------------------------------
 (1) _display_dashboard                                    4     3      1   26167
                                              5 BANK0      4     3      1
                            ___awdiv
                            ___awmod
                         _clcd_print
                         _clcd_putch
                       _display_time
                             _strcmp
 ---------------------------------------------------------------------------------
 (3) _strcmp                                               6     4      2     259
                                              2 COMMON     6     4      2
 ---------------------------------------------------------------------------------
 (2) _display_time                                         0     0      0    6495
                         _clcd_putch
                           _get_time
 ---------------------------------------------------------------------------------
 (2) _get_time                                             1     1      0     161
                                              6 COMMON     1     1      0
                        _read_ds1307
 ---------------------------------------------------------------------------------
 (3) _read_ds1307                                          2     2      0     161
                                              4 COMMON     2     2      0
                           _i2c_read
                      _i2c_rep_start
                          _i2c_start
                           _i2c_stop
                          _i2c_write
 ---------------------------------------------------------------------------------
 (3) _i2c_rep_start                                        0     0      0       0
                          _i2c_start
                           _i2c_stop
 ---------------------------------------------------------------------------------
 (3) _i2c_read                                             2     2      0      65
                                              2 COMMON     2     2      0
                  _i2c_wait_for_idle
 ---------------------------------------------------------------------------------
 (2) ___awmod                                              7     3      4    2773
                                              2 COMMON     7     3      4
 ---------------------------------------------------------------------------------
 (2) ___awdiv                                              9     5      4    2065
                                              2 COMMON     5     1      4
                                              0 BANK0      4     4      0
 ---------------------------------------------------------------------------------
 (1) _clear_log                                            1     1      0      31
                                              2 COMMON     1     1      0
 ---------------------------------------------------------------------------------
 (1) _change_pwd                                          12    10      2   21510
                                              5 BANK0     12    10      2
                         _clcd_print
                         _clcd_putch
                         _clcd_write
                       _clear_screen
           _eeprom_at24c04_str_write
                            _strncmp
 ---------------------------------------------------------------------------------
 (2) _strncmp                                              6     3      3     624
                                              2 COMMON     6     3      3
 ---------------------------------------------------------------------------------
 (3) _eeprom_at24c04_str_write                             4     2      2     552
                                              7 COMMON     3     1      2
                                              0 BANK0      1     1      0
          _eeprom_at24c04_byte_write
 ---------------------------------------------------------------------------------
 (4) _eeprom_at24c04_byte_write                            4     3      1     183
                                              3 COMMON     4     3      1
                          _i2c_start
                           _i2c_stop
                          _i2c_write
 ---------------------------------------------------------------------------------
 (3) _i2c_write                                            1     1      0      31
                                              2 COMMON     1     1      0
                  _i2c_wait_for_idle
 ---------------------------------------------------------------------------------
 (3) _i2c_stop                                             0     0      0       0
                  _i2c_wait_for_idle
 ---------------------------------------------------------------------------------
 (3) _i2c_start                                            0     0      0       0
                  _i2c_wait_for_idle
 ---------------------------------------------------------------------------------
 (4) _i2c_wait_for_idle                                    0     0      0       0
 ---------------------------------------------------------------------------------
 (2) _clear_screen                                         2     2      0    2672
                                              6 COMMON     2     2      0
                         _clcd_write
 ---------------------------------------------------------------------------------
 (2) _clcd_putch                                           2     1      1    6334
                                              9 COMMON     1     0      1
                                              4 BANK0      1     1      0
                            ___awdiv (ARG)
                            ___awmod (ARG)
                         _clcd_write
 ---------------------------------------------------------------------------------
 (2) _clcd_print                                           3     0      3    7988
                                              6 COMMON     3     0      3
                         _clcd_write
 ---------------------------------------------------------------------------------
 (2) _clcd_write                                           4     3      1    2672
                                              2 COMMON     4     3      1
 ---------------------------------------------------------------------------------
 (1) ___lwdiv                                              8     4      4     421
                                              6 COMMON     4     0      4
                                              0 BANK0      4     4      0
                           _read_adc (ARG)
 ---------------------------------------------------------------------------------
 Estimated maximum stack depth 4
 ---------------------------------------------------------------------------------
 (Depth) Function   	        Calls       Base Space   Used Autos Params    Refs
 ---------------------------------------------------------------------------------
 (8) _isr                                                  2     2      0       0
                                              0 COMMON     2     2      0
 ---------------------------------------------------------------------------------
 Estimated maximum stack depth 8
 ---------------------------------------------------------------------------------

 Call Graph Graphs:

 _main (ROOT)
   ___lwdiv
     _read_adc (ARG)
   _change_pwd
     _clcd_print
       _clcd_write
     _clcd_putch
       ___awdiv (ARG)
       ___awmod (ARG)
       _clcd_write (ARG)
     _clcd_write
     _clear_screen
       _clcd_write
     _eeprom_at24c04_str_write
       _eeprom_at24c04_byte_write
         _i2c_start
           _i2c_wait_for_idle
         _i2c_stop
           _i2c_wait_for_idle
         _i2c_write
           _i2c_wait_for_idle
     _strncmp
   _clcd_print
   _clcd_write
   _clear_log
   _clear_screen
   _display_dashboard
     ___awdiv
     ___awmod
     _clcd_print
     _clcd_putch
     _display_time
       _clcd_putch
       _get_time
         _read_ds1307
           _i2c_read
             _i2c_wait_for_idle
           _i2c_rep_start
             _i2c_start
             _i2c_stop
           _i2c_start
           _i2c_stop
           _i2c_write
     _strcmp
   _download_log
     ___awmod
     ___bmul
     _eeprom_at24c04_randon_read
       _i2c_read
       _i2c_rep_start
       _i2c_start
       _i2c_stop
       _i2c_write
     _putcharr
     _putss
       _putcharr
   _eeprom_at24c04_str_write
   _init_config
     _init_adc
     _init_clcd
       _init_display_controller
         _clcd_write
     _init_digital_keypad
     _init_ds1307
       _read_ds1307
       _write_ds1307
         _i2c_start
         _i2c_stop
         _i2c_write
     _init_i2c
       ___lldiv
     _init_timer2
     _init_uarts
       ___lldiv
   _log_car_event
     ___awdiv
     ___awmod
     _get_time
     _log_event
       ___bmul
       _eeprom_at24c04_str_write
     _strncpy
   _login
     ___awdiv
     ___awmod
     _clcd_print
     _clcd_putch
     _clcd_write
     _clear_screen
     _eeprom_at24c04_randon_read
     _strncmp
   _login_menu
     _clcd_print
     _clcd_putch
     _clear_screen
   _read_adc
   _read_digital_keypad
   _set_time
     ___awdiv
     ___awmod
     ___bmul
     _clcd_print
     _clcd_putch
     _clear_screen
     _get_time
     _write_ds1307
   _strcpy
   _view_log
     ___awmod
     ___bmul
     _clcd_print
     _clcd_putch
     _clcd_write
     _eeprom_at24c04_randon_read

 _isr (ROOT)

 Address spaces:
Name               Size   Autos  Total    Cost      Usage
BANK3               60     16      42       9       68.8%
BITBANK3            60      0       0       8        0.0%
SFR3                 0      0       0       4        0.0%
BITSFR3              0      0       0       4        0.0%
BANK2               60      0       0      11        0.0%
BITBANK2            60      0       0      10        0.0%
SFR2                 0      0       0       5        0.0%
BITSFR2              0      0       0       5        0.0%
BANK1               50      0      4D       7       96.2%
BITBANK1            50      0       0       6        0.0%
SFR1                 0      0       0       2        0.0%
BITSFR1              0      0       0       2        0.0%
BANK0               50     19      3E       5       77.5%
BITBANK0            50      0       0       4        0.0%
SFR0                 0      0       0       1        0.0%
BITSFR0              0      0       0       1        0.0%
COMMON               E      A       C       1       85.7%
BITCOMMON            E      0       0       0        0.0%
CODE                 0      0       0       0        0.0%
DATA                 0      0      D9      12        0.0%
ABS                  0      0      D9       3        0.0%
NULL                 0      0       0       0        0.0%
STACK                0      0       0       2        0.0%
EEDATA             100      0       0       0        0.0%


Microchip Technology PIC Macro Assembler V2.40 build 20220703182018 
Symbol Table                                                                                   Thu Sep 14 00:06:16 2023

                                      pc 0002                           ___bmul@product 0074  
                         clcd_print@addr 0078                                       l87 14EB  
                                     _GO 00FA                             ___awdiv@sign 0021  
                                     _ch 00BB                                       _vl 004E  
                                     fsr 0004                      clear_log@reset_flag 0072  
                     login_menu@menu_pos 0045                                      l203 125A  
                                    l206 1393                                      l126 02C3  
                                    l312 1247                                      l241 11ED  
                                    l209 12B5                                      l137 02D1  
                                    l250 11D6                                      l306 119C  
                                    l171 12D5                                      l180 1282  
                                    l244 11F9                                      l253 11B6  
                                    l261 11CB                                      l309 1239  
                                    l510 0B52                                      l174 16E6  
                                    l238 14B1                                      l247 11AD  
                                    l256 12F1                                      l272 1195  
                                    l433 0FFF                                      l257 12F4  
                                    l177 11EC                                      l513 173E  
                                    l186 13ED                                      l258 12F6  
                                    l506 0A77                                      l516 1224  
                                    l372 168F                                      l381 1568  
                                    l285 0973                                      l438 1235  
                                    l623 1206                                      l535 0CB3  
                                    l376 08EC                                      l480 0629  
                                    l369 0A1F                                      l473 0615  
                                    l642 144D                                      l483 0630  
                                    l652 11DC                                      l660 1341  
                                    l653 11E0                                      l389 0E24  
                                    l574 13BE                                      l654 11E1  
                                    l478 0739                                      l583 141C  
                                    l559 07FD                                      l912 1797  
                                    l577 1368                                      l772 1297  
                                    l782 17FF                                      l899 0880  
                                    _GIE 005F                                      _RE1 0049  
                                    _RE2 004A                                      _PR2 0092  
                                    _PEN 048A                                      _SEN 0488  
                          ?_display_time 0070                            log_event@addr 0022  
                                    _key 0050                                      _log 00C9  
                                    _sec 004B                                      _isr 15AF  
                         clcd_putch@addr 0079                                      _num 00B5  
                                    _pos 005B                                      fsr0 0004  
                         clcd_putch@data 0024                                      indf 0000  
                           ___awmod@sign 0078         __end_of_eeprom_at24c04_str_write 141D  
                     view_log@reset_flag 0025                       log_car_event@event 0024  
                     log_car_event@speed 0026                                     l1018 15AE  
                                   l1202 147F                                     l1211 1519  
                                   l1216 1529                                     l1208 131B  
                                   l1227 163D                    ??_read_digital_keypad 0072  
                                   l5001 0D6B                                     l5011 0D8D  
                                   l5003 0D71                                     l4301 11F3  
                                   l5101 0EF1                                     l5021 0DBF  
                                   l5013 0D97                                     l5005 0D77  
                                   l4303 11A5                                     l4311 11C2  
                                   l5111 0F15                                     l5103 0EF5  
                                   l5031 0DF1                                     l5023 0DC9  
                                   l5015 0DA1                                     l5007 0D77  
                                   l4305 11AA                                     l4313 11C7  
                                   l5113 0F1D                                     l5105 0EFB  
                                   l5121 0F3D                                     l4321 12D7  
                                   l4401 09D5                                     l5201 04F6  
                                   l5041 0E1D                                     l5025 0DD3  
                                   l5017 0DAB                                     l5009 0D82  
                                   l4307 11AE                                     l4315 11CB  
                                   l5131 0F67                                     l5123 0F45  
                                   l5115 0F28                                     l5107 0F01  
                                   l5051 0E4E                                     l5043 0E28  
                                   l4331 12F5                                     l4323 12DC  
                                   l4411 0A06                                     l4403 09D6  
                                   l5211 0505                                     l5203 04F8  
                                   l5027 0DDD                                     l5019 0DB5  
                                   l4341 12C9                                     l4501 13C7  
                                   l4309 11B3                                     l5141 0F8A  
                                   l5133 0F70                                     l5125 0F4C  
                                   l5117 0F2F                                     l5109 0F08  
                                   l5061 0E78                                     l5053 0E55  
                                   l5045 0E2E                                     l4325 12E4  
                                   l4413 0A16                                     l4405 09E6  
                                   l4421 1285                                     l5301 070E  
                                   l5221 0524                                     l5213 050A  
                                   l5205 04FE                                     l5037 0DFB  
                                   l5029 0DE7                                     l4335 12B7  
                                   l4503 13D7                                     l4351 135F  
                                   l5143 0F97                                     l5135 0F78  
                                   l5127 0F59                                     l5119 0F36  
                                   l5071 0E98                                     l5063 0E80  
                                   l5055 0E5C                                     l5047 0E3B  
                                   l4327 12E8                                     l4319 11CC  
                                   l4343 136A                                     l4415 0A1E  
                                   l4407 09EE                                     l4511 1450  
                                   l4423 1289                                     l5303 071A  
                                   l5231 0541                                     l5223 0529  
                                   l5215 0513                                     l5039 0E0B  
                                   l4337 12C1                                     l4505 13DD  
                                   l4361 140E                                     l4353 13F1  
                                   l5161 0FD8                                     l5145 0F9F  
                                   l5153 0FAF                                     l5129 0F61  
                                   l5137 0F7B                                     l5081 0EC0  
                                   l5073 0EA0                                     l5065 0E87  
                                   l5049 0E43                                     l5057 0E63  
                                   l4601 081B                                     l4329 12ED  
                                   l4345 1392                                     l4409 09FE  
                                   l4513 145A                                     l4425 128D  
                                   l4417 11D8                                     l5321 0A2B  
                                   l5313 0A20                                     l4441 17BE  
                                   l4433 1798                                     l4521 152A  
                                   l5241 058C                                     l5233 0547  
                                   l5225 052F                                     l5217 0519  
                                   l5209 04FF                                     l5401 00B9  
                                   l4339 12C3                                     l4355 13F2  
                                   l5171 0FEF                                     l5163 0FDD  
                                   l5155 0FB8                                     l5147 0FA5  
                                   l5139 0F83                                     l5083 0EC7  
                                   l5067 0E89                                     l5059 0E6B  
                                   l5075 0EA3                                     l4611 082F  
                                   l4603 081F                                     l4507 163E  
                                   l4515 1473                                     l4427 128F  
                                   l4419 1284                                     l5331 0A51  
                                   l5323 0A35                                     l5315 0A20  
                                   l4371 16B4                                     l4363 1690  
                                   l4451 17F1                                     l4443 17C7  
                                   l4435 17AA                                     l4531 153B  
                                   l4523 152E                                     l5307 0726  
                                   l5243 05C2                                     l5235 054C  
                                   l5227 0534                                     l5219 051E  
                                   l5251 0615                                     l5411 00E0  
                                   l5403 00BB                                     l4349 1343  
                                   l4357 1402                                     l5181 0FFA  
                                   l5165 0FE1                                     l5157 0FBF  
                                   l5085 0EC9                                     l5077 0EAB  
                                   l5093 0ED9                                     l5069 0E8F  
                                   l4621 0845                                     l4613 0833  
                                   l4605 0824                                     l4517 147A  
                                   l4509 144F                                     l4429 1296  
                                   l4541 1395                                     l5333 0A59  
                                   l5325 0A3E                                     l5317 0A20  
                                   l4381 16DA                                     l4373 16BB  
                                   l4365 1698                                     l4461 11E6  
                                   l4445 17D9                                     l4437 17AD  
                                   l4453 17F7                                     l4533 1547  
                                   l4525 1532                                     l4701 1739  
                                   l5261 0628                                     l5253 061B  
                                   l5245 0604                                     l5237 0580  
                                   l5229 053A                                     l5501 022A  
                                   l5421 0112                                     l5413 00E2  
                                   l5405 00C4                                     l4383 1271  
                                   l4359 1408                                     l5183 0FFC  
                                   l5167 0FE3                                     l5159 0FC6  
                                   l5095 0EE2                                     l5087 0ECF  
                                   l5079 0EB8                                     l5191 122C  
                                   l4631 0865                                     l4623 0849  
                                   l4615 0835                                     l4607 0826  
                                   l4391 099D                                     l4551 13B1  
                                   l4543 139A                                     l5351 0AB2  
                                   l5335 0A5E                                     l5327 0A44  
                                   l5319 0A23                                     l4375 16BE  
                                   l4367 169F                                     l4463 11E7  
                                   l4471 1248                                     l4447 17E7  
                                   l4439 17BA                                     l4535 1551  
                                   l4527 1538                                     l4703 1236  
                                   l4711 08F2                                     l5255 0620  
                                   l5247 0608                                     l5239 0584  
                                   l5511 025B                                     l5431 0151  
                                   l5423 0119                                     l5415 00E8  
                                   l5407 00CA                                     l5361 1573  
                                   l4561 14EE                                     l5185 0FFE  
                                   l5169 0FE5                                     l5177 0FF1  
                                   l5097 0EE8                                     l4633 086C  
                                   l4625 084D                                     l4617 083B  
                                   l4609 082A                                     l4393 09A5  
                                   l4553 13B8                                     l4545 13A0  
                                   l5353 0ABF                                     l5345 0A90  
                                   l5337 0A61                                     l5329 0A4A  
                                   l4377 16C5                                     l4369 16AF  
                                   l4457 11E2                                     l4385 1299  
                                   l4473 124F                                     l4449 17E8  
                                   l4465 1480                                     l4481 11FA  
                                   l4537 1560                                     l4529 1539  
                                   l4801 0B69                                     l4705 123D  
                                   l4713 08F8                                     l4721 0904  
                                   l5281 0663                                     l5273 0637  
                                   l5265 062F                                     l5249 0610  
                                   l5601 0380                                     l5513 0260  
                                   l5505 0232                                     l5433 0158  
                                   l5441 0178                                     l5425 012F  
                                   l5417 0104                                     l5409 00D8  
                                   l5371 1596                                     l5363 1576  
                                   l4299 11ED                                     l4571 1527  
                                   l4563 14F6                                     l5179 0FF6  
                                   l5099 0EED                                     l4627 085E  
                                   l4619 083E                                     l4635 0872  
                                   l4651 174B                                     l4643 173F  
                                   l4395 09B5                                     l4387 0974  
                                   l4555 13BD                                     l4547 13A6  
                                   l4539 1395                                     l5347 0A9E  
                                   l5339 0A8E                                     l5355 0B42  
                                   l4379 16D1                                     l4459 11E5  
                                   l4475 1252                                     l4467 1483  
                                   l4483 11FE                                     l4491 1421  
                                   l4811 0B86                                     l4803 0B6B  
                                   l4723 090A                                     l4715 08FD  
                                   l5291 06C4                                     l5283 067E  
                                   l5275 0641                                     l5259 0622  
                                   l5195 049D                                     l5611 03A6  
                                   l5603 038B                                     l5531 027F  
                                   l5523 0272                                     l5515 0265  
                                   l5507 024F                                     l5451 019B  
                                   l5443 0180                                     l5435 015F  
                                   l5427 0137                                     l5419 010A  
                                   l5373 159C                                     l5365 157D  
                                   l5357 1569                                     l4565 1502  
                                   l5189 1226                                     l4637 0877  
                                   l4629 0864                                     l4661 1764  
                                   l4653 174F                                     l4645 1740  
                                   l4397 09BD                                     l4389 098F  
                                   l4549 13AB                                     l4581 1331  
                                   l5349 0AAA                                     l4477 1190  
                                   l4469 14AE                                     l4485 1202  
                                   l4493 144C                                     l4821 0BA1  
                                   l4813 0B8C                                     l4805 0B71  
                                   l4901 0759                                     l4741 093F  
                                   l4725 090F                                     l4733 091F  
                                   l4717 08FF                                     l4709 08ED  
                                   l5293 06DF                                     l5285 0686  
                                   l5277 0642                                     l5269 0636  
                                   l5197 04A8                                     l5621 03CE  
                                   l5605 0399                                     l5613 03AE  
                                   l5541 0292                                     l5533 0285  
                                   l5525 0278                                     l5517 026B  
                                   l5509 0255                                     l5461 01B8  
                                   l5453 01A2                                     l5445 0186  
                                   l5437 0163                                     l5429 0149  
                                   l5375 159D                                     l5367 1581  
                                   l5359 156D                                     l4495 1214  
                                   l4559 14ED                                     l4639 087C  
                                   l4671 1783                                     l4663 1768  
                                   l4655 1754                                     l4647 1744  
                                   l4399 09CD                                     l4575 131C  
                                   l4479 1196                                     l4487 1203  
                                   l4591 1620                                     l4583 15F9  
                                   l4807 0B77                                     l4815 0B8F  
                                   l4911 076E                                     l4903 075E  
                                   l4743 0948                                     l4751 0956  
                                   l4735 0924                                     l4727 0910  
                                   l4719 0901                                     l5295 06FA  
                                   l5287 06A1                                     l5279 064A  
                                   l5199 04AF                                     l5631 03FE  
                                   l5623 03D9                                     l5615 03B4  
                                   l5607 039E                                     l5551 02AF  
                                   l5543 0298                                     l5471 01CF  
                                   l5455 01A9                                     l5447 018B  
                                   l5463 01BC                                     l5391 0086  
                                   l5383 0058                                     l5377 15A4  
                                   l5369 1585                                     l4497 121B  
                                   l4569 1511                                     l4665 176C  
                                   l4657 175A                                     l4673 1789  
                                   l4649 1749                                     l4577 131D  
                                   l4489 141D                                     l4681 14B2  
                                   l4593 1627                                     l4585 15FC  
                                   l4841 0BC9                                     l4817 0B95  
                                   l4809 0B7D                                     l4921 0785  
                                   l4913 0774                                     l4905 0761  
                                   l4753 095B                                     l4745 094E  
                                   l4737 0931                                     l4729 091D  
                                   l4761 0972                                     l5289 06BC  
                                   l5633 0407                                     l5625 03E7  
                                   l5617 03B9                                     l5609 03A2  
                                   l5561 02D4                                     l5553 02B5  
                                   l5545 029D                                     l5481 01F8  
                                   l5473 01D5                                     l5465 01C2  
                                   l5457 01B0                                     l5449 0190  
                                   l5393 0087                                     l5385 005D  
                                   l5379 15AA                                     l4499 13BF  
                                   l4675 178E                                     l4667 1776  
                                   l4659 175D                                     l4579 132B  
                                   l4691 14EA                                     l4683 14D0  
                                   l4595 162B                                     l4587 1602  
                                   l4843 0BDB                                     l4851 0BDD  
                                   l4835 0BB2                                     l4819 0B9B  
                                   l4827 0BAB                                     l4931 07C7  
                                   l4923 078D                                     l4915 077A  
                                   l4907 0767                                     l4755 0964  
                                   l4739 093A                                     l5299 0702  
                                   l4771 1305                                     l5643 0433  
                                   l5635 040D                                     l5627 03F5  
                                   l5619 03C3                                     l5571 02F3  
                                   l5563 02DB                                     l5555 02BA  
                                   l5547 02A1                                     l5539 028C  
                                   l5491 021A                                     l5483 0200  
                                   l5475 01E4                                     l5459 01B4  
                                   l5395 0091                                     l5387 0074  
                                   l4677 1793                                     l4669 177C  
                                   l4781 08E7                                     l4773 0884  
                                   l4685 14D5                                     l4597 162F  
                                   l4693 16E7                                     l4861 0C03  
                                   l4853 0BE6                                     l4837 0BBD  
                                   l4829 0BB1                                     l4933 07CF  
                                   l4925 0795                                     l4917 0780  
                                   l4909 076C                                     l4757 096A  
                                   l4765 12F8                                     l4941 0CB7  
                                   l5645 043E                                     l5637 0423  
                                   l5629 03FA                                     l5581 0328  
                                   l5565 02E3                                     l5557 02BE  
                                   l5549 02A9                                     l5493 021E  
                                   l5485 0205                                     l5477 01E8  
                                   l5469 01C9                                     l5397 009D  
                                   l5389 0086                                     l4599 0818  
                                   l4775 08AE                                     l4687 14DA  
                                   l4695 16EC                                     l4871 0C52  
                                   l4863 0C0F                                     l4855 0BE8  
                                   l4839 0BC3                                     l4791 0B5F  
                                   l4783 0B56                                     l4935 07E5  
                                   l4927 07AA                                     l4767 12FB  
                                   l4951 0CC7                                     l4943 0CBF  
                                   l5655 0468                                     l5647 0443  
                                   l5591 035C                                     l5583 0339  
                                   l5567 02E9                                     l5559 02C4  
                                   l5831 023E                                     l5487 0209  
                                   l5479 01ED                                     l5663 046E  
                                   l5399 00B3                                     l4777 08B1  
                                   l4689 14E9                                     l4697 16FA  
                                   l4881 0C91                                     l4873 0C5D  
                                   l4865 0C43                                     l4857 0BED  
                                   l4793 0B62                                     l4785 0B56  
                                   l4937 07FA                                     l4929 07C1  
                                   l4769 12FF                                     l4961 0CE8  
                                   l4953 0CC8                                     l5649 0459  
                                   l5593 0361                                     l5585 033E  
                                   l5833 0310                                     l5577 02FB  
                                   l5569 02EC                                     l5665 0492  
                                   l5497 0223                                     l5489 0215  
                                   _ADFM 04FF                                     l4779 08CC  
                                   l4699 1738                                     l4883 0C94  
                                   l4875 0C73                                     l4867 0C4A  
                                   l4859 0BF8                                     l4891 0CAB  
                                   l4795 0B63                                     l4787 0B5C  
                                   l4971 0D04                                     l4955 0CCA  
                                   l5835 0478                                     l5595 0372  
                                   l5587 0349                                     l5579 0318  
                                   l5499 0225                                     ?_isr 0070  
                                   l4893 0CB2                                     l4885 0C96  
                                   l4877 0C81                                     l4869 0C4D  
                                   l4797 0B64                                     l4789 0B5E  
                                   l5837 072E                                     l4981 0D2D  
                                   l4973 0D0C                                     l4957 0CCF  
                                   l4949 0CC1                                     l5597 0378  
                                   l5589 0357                                     l4887 0C9D  
                                   l4879 0C86                                     l4799 0B65  
                                   l4991 0D45                                     l4983 0D31  
                                   l4975 0D19                                     l4967 0CEA  
                                   l4959 0CD2                                     l5599 037D  
                                   l4889 0CA4                                     l4897 073D  
                                   l4993 0D4A                                     l4985 0D37  
                                   l4977 0D21                                     l4969 0CF8  
                                   l4899 0753                                     l4995 0D4E  
                                   l4979 0D27                                     l4987 0D39  
                                   l4997 0D53                                     l4989 0D3F  
                                   l4999 0D55                                     _ADON 00F8  
                                   STR_1 1168                                     STR_2 1159  
                                   STR_3 115C                                     STR_4 115F  
                                   STR_5 1162                                     STR_6 116B  
                                   STR_7 114A                                     STR_8 1156  
                                   STR_9 1075                                     _CREN 00C4  
                                   u4200 11F3                                     u5000 0C4A  
                                   u4201 11F2                                     u5001 0C49  
                                   u4210 11F9                                     u5010 0CB2  
                                   u4211 11F8                                     u5011 0CB1  
                                   u4220 12ED                                     u5020 0745  
                                   u5100 0CBF                                     u4221 12EC  
                                   u5101 0CBE                                     u4230 12BE  
                                   u5030 0759                                     u5110 0CC7  
                                   u4231 12BA                                     u5031 0758  
                                   u5111 0CC6                                     u4320 11E0  
                                   u5040 0767                                     u5200 0D4A  
                                   u5120 0CCF                                     u6000 0180  
                                   u4305 09F3                                     u4321 11DF  
                                   u5041 0766                                     u5201 0D49  
                                   u5121 0CCE                                     u6001 017F  
                                   u4250 141C                                     u4330 1289  
                                   u4410 17F7                                     u5050 076C  
                                   u5210 0D53                                     u5130 0D19  
                                   u6010 0186                                     u4251 141B  
                                   u4315 0A0B                                     u4331 1288  
                                   u4411 17F6                                     u5051 076B  
                                   u5211 0D52                                     u5131 0D18  
                                   u6011 0185                                     u4244 12C1  
                                   u4500 1502                                     u5300 0E80  
                                   u4340 1296                                     u4420 1491  
                                   u5060 077A                                     u5220 0D71  
                                   u5140 0D21                                     u6100 027E  
                                   u6020 018B                                     u4501 1501  
                                   u5301 0E7F                                     u4341 1295  
                                   u4405 17E9                                     u5061 0779  
                                   u5221 0D70                                     u5141 0D20  
                                   u6101 027D                                     u6021 018A  
                                   u4510 1527                                     u5310 0E87  
                                   u4350 17AA                                     u4430 142F  
                                   u5070 0780                                     u5230 0D77  
                                   u5150 0D27                                     u6110 0285  
                                   u6030 01C2                                     u4511 1526  
                                   u5311 0E86                                     u4351 17A9  
                                   u5071 077F                                     u5231 0D76  
                                   u5151 0D26                                     u5135 0D15  
                                   u6111 0284                                     u6031 01C1  
                                   u4440 13ED                                     u5400 0F08  
                                   u5320 0EAB                                     u4600 084D  
                                   u4520 1341                                     u5080 078D  
                                   u5240 0E1D                                     u5160 0D2D  
                                   u6200 040D                                     u6120 028B  
                                   u6040 01C8                                     u4441 13EC  
                                   u5401 0F07                                     u5321 0EAA  
                                   u4601 084C                                     u4265 0992  
                                   u4521 1340                                     u4425 148C  
                                   u5081 078C                                     u5241 0E1C  
                                   u5161 0D2C                                     u6201 040C  
                                   u6121 028A                                     u6041 01C7  
                                   u5410 0F15                                     u5330 0EB8  
                                   u5250 0E2E                                     u4450 1473  
                                   u4370 17BE                                     u4530 161F  
                                   u5090 07C7                                     u5170 0D37  
                                   u6210 0443                                     u6130 0292  
                                   u6050 0255                                     u5411 0F14  
                                   u5331 0EB7                                     u5251 0E2D  
                                   u4275 09AA                                     u4451 1472  
                                   u4371 17BD                                     u4435 142A  
                                   u4531 161E                                     u5091 07C6  
                                   u5243 0E19                                     u5171 0D36  
                                   u6211 0442                                     u6131 0291  
                                   u6051 0254                                     _PEIE 005E  
                                   u5500 0F9F                                     u5420 0F1D  
                                   u5340 0EC0                                     u5260 0E3B  
                                   u4620 085E                                     u4700 176C  
                                   u4460 147A                                     u4540 1626  
                                   u5180 0D3F                                     u6140 0298  
                                   u6060 025B                                     u5501 0F9E  
                                   u5421 0F1C                                     u5341 0EBF  
                                   u5261 0E3A                                     u4621 085D  
                                   u4701 176B                                     u4285 09C2  
                                   u4461 1479                                     u4365 17AF  
                                   u4541 1625                                     u5181 0D3E  
                                   u6141 0297                                     u6061 025A  
                                   u5510 0FB8                                     u5430 0F45  
                                   u5350 0EC7                                     u5270 0E43  
                                   u4710 1776                                     u4390 17D9  
                                   u4470 1538                                     u4550 163D  
                                   u5190 0D45                                     u6150 02AF  
                                   u6070 026B                                     u5511 0FB7  
                                   u5431 0F44                                     u5415 0F11  
                                   u5351 0EC6                                     u5335 0EB4  
                                   u5271 0E42                                     u4615 084E  
                                   u4711 1775                                     u4295 09DB  
                                   u4391 17D8                                     u4471 1537  
                                   u4551 163C                                     u5191 0D44  
                                   u6151 02AE                                     u6071 026A  
                                   u5520 0FBF                                     u5440 0F4C  
                                   u5360 0EE2                                     u5280 0E6B  
                                   u4640 0872                                     u4560 081F  
                                   u4480 1560                                     u4800 091D  
                                   u5600 051E                                     u6160 02B5  
                                   u6080 0271                                     u5521 0FBE  
                                   u5441 0F4B                                     u5361 0EE1  
                                   u5281 0E6A                                     u5265 0E37  
                                   u4641 0871                                     u4625 085A  
                                   u4561 081E                                     u4385 17C0  
                                   u4481 155F                                     u4801 091C  
                                   u5601 051D                                     u6161 02B4  
                                   u6081 0270                                     u4490 14F6  
                                   u5530 0FD8                                     u5450 0F59  
                                   u5370 0EE8                                     u5290 0E78  
                                   u4650 0877                                     u4570 082A  
                                   u4730 1789                                     u4810 0924  
                                   u5610 0524                                     u6170 033E  
                                   u6090 0278                                     u4491 14F5  
                                   u5531 0FD7                                     u5451 0F58  
                                   u5371 0EE7                                     u5291 0E77  
                                   u4651 0876                                     u4635 0866  
                                   u4571 0829                                     u4731 1788  
                                   u4715 1772                                     u4395 17D5  
                                   u6307 0C7B                                     u4811 0923  
                                   u5611 0523                                     u6171 033D  
                                   u6091 0277                                     u6227 01AD  
                                   _RCIE 0465                                     u5460 0F61  
                                   u5380 0EFB                                     u5540 122C  
                                   u4580 083B                                     u4740 178E  
                                   u4660 1744                                     u4900 08AE  
                                   u4820 0931                                     u5700 061B  
                                   u5620 052F                                     u6180 0378  
                                   _RCEN 048B                                     _RCIF 0065  
                                   u5461 0F60                                     u5381 0EFA  
                                   u5541 122B                                     u4581 083A  
                                   u4741 178D                                     u4725 177D  
                                   u4661 1743                                     u4901 08AD  
                                   u4485 155C                                     u6317 0CA8  
                                   u4821 0930                                     u4805 0919  
                                   u5701 061A                                     u5621 052E  
                                   u6181 0377                                     u6237 02DF  
                                   u5470 0F83                                     u5390 0F01  
                                   u4670 174F                                     u4910 0B5C  
                                   u4750 123D                                     u4830 093F  
                                   u5710 0628                                     u5630 0534  
                                   u5550 04AF                                     u6190 03B4  
                                   u6407 1363                                     u5471 0F82  
                                   u5455 0F55                                     u5391 0F00  
                                   u5295 0E74                                     u4671 174E  
                                   u6327 1694                                     u4911 0B5B  
                                   u4751 123C                                     u4831 093E  
                                   u5711 0627                                     u5631 0533  
                                   u5551 04AE                                     u6191 03B3  
                                   u6247 02F7                                     u5480 0F8A  
                                   u4680 175A                                     u5800 0ABF  
                                   u4920 0B71                                     u4840 0948  
                                   u4760 08F8                                     u5720 062F  
                                   u5640 053A                                     u5560 04FE  
                                   u6417 121F                                     u5481 0F89  
                                   u4681 1759                                     u5801 0ABE  
                                   u6337 16A3                                     u4921 0B70  
                                   u4841 0947                                     u4825 092D  
                                   u4761 08F7                                     u5721 062E  
                                   u5641 0539                                     u5561 04FD  
                                   u6257 0351                                     u5490 0F97  
                                   u5810 0B52                                     u4930 0B77  
                                   u4850 094E                                     u4770 08FD  
                                   u5730 0636                                     u5650 0547  
                                   u5570 0505                                     u6427 12C6  
                                   u5491 0F96                                     u4595 083F  
                                   u5811 0B51                                     u6347 16B1  
                                   u4931 0B76                                     u4851 094D  
                                   u4771 08FC                                     u5731 0635  
                                   u5651 0546                                     u5571 0504  
                                   u6267 0393                                     u5820 1573  
                                   u4940 0B95                                     u4860 095B  
                                   u4780 090A                                     u5740 0641  
                                   u5660 054C                                     u5580 050A  
                                   u5900 00B9                                     u5821 1572  
                                   u6437 12D0                                     u5805 0ABB  
                                   u6357 16C7                                     u4941 0B94  
                                   u4861 095A                                     u4781 0909  
                                   u5741 0640                                     u5661 054B  
                                   u5581 0509                                     u6277 03E1  
                                   u5901 00B8                                     u4950 0B9B  
                                   u4870 0964                                     u4790 090F  
                                   u5750 0648                                     u5590 0519  
                                   u5910 00D8                                     u5495 0F93  
                                   u4695 175E                                     u5815 0B4E  
                                   u6367 16D5                                     u4951 0B9A  
                                   u4871 0963                                     u4791 090E  
                                   u5751 0646                                     u5591 0518  
                                   u6287 042B                                     u5911 00D7  
                                   u5840 1585                                     u4960 0BB1  
                                   u4880 096A                                     u5760 0649  
                                   u5920 00E0                                     u5841 1584  
                                   u6377 16E3                                     u4961 0BB0  
                                   u4881 0969                                     u6297 0461  
                                   u5921 00DF                                     u4970 0BC9  
                                   u5770 0701                                     u4890 131B  
                                   u5930 00E8                                     _OERR 00C1  
                                   u5835 1577                                     u6387 0E60  
                                   u4971 0BC8                                     u5771 0700  
                                   u5675 0577                                     u4891 131A  
                                   u5931 00E7                                     u5860 1596  
                                   u5780 0A2B                                     u4980 0BDB  
                                   u5940 010A                                     u5861 1595  
                                   u6397 0F3A                                     u5781 0A2A  
                                   u4981 0BDA                                     u5685 05B9  
                                   u5941 0109                                     u5790 0A5E  
                                   u4990 0BE6                                     u5950 0112  
                                   u5855 1586                                     u5791 0A5D  
                                   u4991 0BE5                                     u5695 05FB  
                                   u5951 0111                                     u5880 15AA  
                                   u5960 0119                                     u5881 15A9  
                                   u5865 1592                                     u5961 0118  
                                   u5970 0151                                     u5890 0067  
                                   u5875 159E                                     u5971 0150  
                                   u5980 0158                                     u5981 0157  
                                   u5990 015F                                     u5991 015E  
                                   _SPEN 00C7                                     _TXIF 0064  
                                   _R_nW 04A2                                     _addr 00EC  
                                   _baud 00E3                                     _main 0058  
                                   _pos1 00EA                                     _pos2 0053  
                                   _time 00D4                                     _view 0190  
                                   btemp 007E                                     start 000C  
                      ___bmul@multiplier 0075                           clcd_write@byte 0075  
                         clcd_write@mode 0072                            _i2c_rep_start 11CC  
   eeprom_at24c04_randon_read@memory_loc 0074                                    ??_isr 0070  
                           ?_init_ds1307 0070                                    ?_main 0070  
                           ?_read_ds1307 0070                                    _ACKEN 048C  
                                  _ACKDT 048D                           ??_display_time 007A  
                        __end_of___awdiv 0881                                    STR_10 1165  
                                  STR_11 113F                                    STR_20 1012  
                                  STR_12 1000                                    STR_21 1153  
                                  STR_13 10E8                                    STR_22 1145  
                                  STR_30 1138                                    STR_14 1065  
                                  STR_15 1113                                    STR_23 1085  
                                  STR_31 1045                                    STR_32 10FF  
                                  STR_16 10CE                                    STR_24 1094  
                                  STR_40 10F4                                    STR_33 114F  
                                  STR_25 111D                                    STR_17 10DB  
                                  STR_41 1126                                    STR_26 1031  
                                  STR_34 10A3                                    STR_18 1023  
                                  STR_27 1031                                    STR_35 10B2  
                                  STR_19 1034                                    STR_28 1031  
                                  STR_36 1076                          __end_of___awmod 1798  
                                  STR_29 1055                                    STR_37 112F  
                                  STR_38 1109                                    STR_39 10C1  
                        __end_of___lldiv 1800                              i2c_read@ack 0072  
                        ___awdiv@divisor 0072                          __end_of___lwdiv 15AF  
                                  i1l610 15EF                                    i1l606 15D1  
                           ?_init_config 0070                          ___awdiv@counter 0020  
                                  _RCREG 001A                                    _SPBRG 0099  
                                  _PORTB 0006                                    _PORTD 0008  
                                  _SSPM3 00A3                                    _TRISB 0086  
                                  _TRISD 0088                                    _SSPEN 00A5  
                                  _TXREG 0019                             ?_init_timer2 0070  
                                  _nDONE 00FA                     __end_of_clear_screen 1225  
                                  _count 00B9                             view_log@addr 005A  
                                  _login 0B53                                    _time1 00AA  
                                  main@j 01C8                                    _putss 131C  
                           main@time_set 01CB                                    pclath 000A  
                   login_menu@reset_flag 0025       eeprom_at24c04_str_write@memory_loc 0020  
                                  status 0003                                    wtemp0 007E  
                        __end_of_strncmp 152A                          __end_of_strncpy 163E  
                       init_ds1307@dummy 0076                          __initialization 000F  
                         ?_i2c_rep_start 0070                             __end_of_main 049A  
                         login@npassword 00DF                         __end_of_i2c_read 12F7  
                       __end_of_i2c_stop 11B7                            ?_download_log 0070  
                                 ??_main 0035                           login@spassword 00DB  
                                 _ADRESH 001E                                   ?_login 0025  
                                 _ADRESL 009E                         ___awdiv@dividend 0074  
                                 ?_putss 0073                             i2c_read@data 0073  
                                 i1l4201 15CF                                   i1l4211 15E3  
                                 i1l4203 15D6                                   i1l4213 15E7  
                                 i1l4205 15DB                                   i1l4215 15E8  
                                 i1l4207 15DD                                   i1l4217 15EC  
                                 i1l4209 15DF                                   i1l4193 15AF  
                                 i1l4195 15B5                                   i1l4197 15C6  
                                 i1l4199 15C8                                   u413_20 15B5  
                                 u413_21 15B4                                   u414_20 15C6  
                                 u414_21 15C5                                   u415_20 15CF  
                                 u415_21 15CE                                   u416_20 15D6  
                                 u416_21 15D5                                   u417_20 15DB  
                                 u417_21 15DA                                   u418_20 15E3  
                                 u418_21 15E2                             _write_ds1307 1298  
                                 u419_20 15E7                                   u419_21 15E6  
                                 _TMR2IE 0461                                   _TMR2IF 0061  
                                 _TMR2ON 0092              ?_eeprom_at24c04_randon_read 0070  
                                 _SSPADD 0093                                   _TRISE1 0449  
                                 _TRISE2 044A                                   _SSPBUF 0013  
                          login_menu@key 0034              __end_of_init_digital_keypad 1196  
              ?_eeprom_at24c04_str_write 0077                         __end_of_get_time 0A20  
                                 ___bmul 1283                  _init_display_controller 1690  
                              ??___awdiv 0076                                ??___awmod 0076  
                              ??___lldiv 0020                                ??___lwdiv 0020  
                          view_log@i_387 0027                                   _count1 00B7  
                       __end_of_init_i2c 14B2                         __end_of_init_adc 119D  
                       __end_of_read_adc 1248                           ??_download_log 0079  
                       ___awdiv@quotient 0022                          ___awmod@divisor 0072  
                           putcharr@data 0072                          ___awmod@counter 0077  
                                 main@gr 01CF                                   _strcmp 144E  
                                 _strcpy 12F7                                   login@i 0046  
                                 login@j 002A                         __end_of_set_time 073A  
                                 saved_w 007E                         __end_of_view_log 0E25  
                       __end_of_putcharr 11E2                                   putss@s 0073  
                              ??_strncmp 0075                                ??_strncpy 0076  
                __end_of__initialization 0054                     __end_of_display_time 1690  
                        ??_i2c_rep_start 0072                      ___bmul@multiplicand 0072  
                         __pcstackCOMMON 0070                             __pidataBANK0 1207  
                           __pidataBANK1 11B7                             __pidataBANK3 0802  
             ?_eeprom_at24c04_byte_write 0073                            __end_of_login 0CB4  
                          __end_of_putss 1342                          login@reset_flag 0025  
                      __end_of_i2c_start 11AE                        __end_of_i2c_write 11CC  
                      _i2c_wait_for_idle 11ED                                  ??_login 0026  
                                ??_putss 0075                       ?_i2c_wait_for_idle 0070  
                             __pbssBANK0 0039                               __pbssBANK1 00A0  
                             __pbssBANK3 0190                                ?_i2c_read 0070  
                             _change_pwd 0E25                                ?_i2c_stop 0070  
                    set_time@hour_count1 00C3                      set_time@hour_count2 00C2  
                    set_time@hour_limit2 00BC                            change_pwd@key 0030  
                          change_pwd@pwd 002C                ??_init_display_controller 0076  
                             _clcd_print 13BF                      ??_i2c_wait_for_idle 0072  
                             _clcd_putch 126E                               _clcd_write 12B6  
                             __pmaintext 0058                          read_ds1307@addr 0074  
                          _log_car_event 16E7                          read_ds1307@data 0075  
                           _clear_screen 1214                                  ?___bmul 0072  
                             __pintentry 0004                                  _ACKSTAT 048E  
          eeprom_at24c04_byte_write@data 0073                                  ?_strcmp 0072  
                                ?_strcpy 0072                                  _T2CKPS0 0090  
                                _T2CKPS1 0091              __end_of_read_digital_keypad 0974  
              __end_of_i2c_wait_for_idle 11FA                             init_i2c@baud 0026  
                                _SSPCON2 0091                                ?_get_time 0070  
                         login_menu@menu 002A                               __stringtab 116E  
                             ??_i2c_read 0072                   change_pwd@control_flag 0026  
                             ??_i2c_stop 0072                                ?_init_i2c 0026  
                   __end_of_download_log 0B53                                ?_init_adc 0070  
                              ?_read_adc 0072                        __end_of_clear_log 1236  
                         ?_log_car_event 0024                                ?_set_time 0025  
                                ___awdiv 0818                                  ___awmod 173F  
                              ?_view_log 0025                                  ___lldiv 1798  
                                ___lwdiv 1569                                ?_putcharr 0070  
                                _address 00C8                               _init_uarts 141D  
                                __ptext1 0CB4                                  __ptext2 12F7  
                                __ptext3 049A                                  __ptext4 08ED  
                                __ptext5 1236                                  __ptext6 073A  
                                __ptext7 0B53                                  __ptext8 16E7  
                                __ptext9 15F6          __end_of_init_display_controller 16E7  
                      __end_of_init_clcd 11ED                   read_digital_keypad@key 0072  
                       ___awmod@dividend 0074                           main@reset_flag 01D1  
                       set_time@position 0059                        __end_of_log_event 1569  
                             _login_menu 073A                                  _pre_key 004F  
                 display_dashboard@event 0028                                  _viewlog 00C4  
                 display_dashboard@speed 0025                                  clrloop0 119E  
                             ??_get_time 0076                                  _strncmp 14EC  
                                _strncpy 15F6                     end_of_initialization 0054  
                            ?_change_pwd 0025                              set_time@key 002E  
                             ??_init_i2c 002A                               ??_init_adc 0072  
                             ??_read_adc 0074                              ?_clcd_print 0076  
                            ?_clcd_putch 0079                          ___lldiv@divisor 0072  
                            ?_clcd_write 0072                          ___lldiv@counter 0025  
                             ??_set_time 0026                     set_time@control_flag 0025  
                             ??_view_log 007A                             __pstringtext 1000  
                             ??_putcharr 0072                                  strcmp@r 0076  
                           _display_time 163E                            i2c_write@data 0072  
                          clcd_print@str 0076                          ??_log_car_event 0027  
                             main@menu_p 01CA              ??_eeprom_at24c04_byte_write 0074  
                         __end_of___bmul 1298                              ?_init_uarts 0026  
                           _control_flag 005D                              view_log@key 002D  
                            view_log@new 002B                              view_log@num 0049  
                         __end_of_strcmp 1480                           __end_of_strcpy 131C  
                    start_initialization 000F                              ?_login_menu 0025  
                              _i2c_start 11A5                              __end_of_isr 15F6  
                              _i2c_write 11C1                 _eeprom_at24c04_str_write 13EE  
                  __end_of_i2c_rep_start 11D7                                 ??___bmul 0073  
                        _memory_location 00EB                               init_fetch0 125B  
                          ??_init_ds1307 0076                              __pdataBANK0 0051  
                            __pdataBANK1 00E3                              __pdataBANK3 01A6  
             read_digital_keypad@pre_key 007A                            ??_read_ds1307 0074  
                           _download_log 0A20                                 ??_strcmp 0074  
                               ??_strcpy 0074                            ??_init_config 007A  
                          ??_init_timer2 0072                              __pbssCOMMON 007A  
                              ___latbits 0002                            __pcstackBANK0 0020  
                          __pcstackBANK3 01BC                               ?_i2c_start 0070  
                             ?_i2c_write 0070                _eeprom_at24c04_byte_write 1342  
                         change_pwd@flag 0041                           change_pwd@pwd1 0028  
                     set_time@hour_limit 00BD                         ___lwdiv@dividend 0078  
                              _clear_log 1225                     change_pwd@reset_flag 0025  
                               ?___awdiv 0072                                 ?___awmod 0072  
                      _display_dashboard 0881                                 ?___lldiv 0072  
                               ?___lwdiv 0076                                _clock_reg 003C  
                     ?_display_dashboard 0025                                __pstrings 116E  
                    __end_of_init_ds1307 125B                      read_adc@adc_reg_val 0074  
                    ??_display_dashboard 0026                      __end_of_read_ds1307 1394  
                       ___lwdiv@quotient 0022                                _init_clcd 11E2  
                    __end_of_init_config 14EC                                 ?_strncmp 0072  
                               ?_strncpy 0072           read_digital_keypad@longpressed 0055  
                              _log_event 152A                            ?_write_ds1307 0073  
                    __end_of_init_timer2 1207                             ??_change_pwd 0027  
               ?_init_display_controller 0070                        interrupt_function 0004  
           ??_eeprom_at24c04_randon_read 0074             download_log@download_log_arr 0020  
                              clear_ram0 119D                              strncpy@from 0072  
                            strncpy@size 0074                             ??_clcd_print 0079  
                           ??_clcd_putch 007A                             ??_clcd_write 0073  
                        login_menu@F1154 01B2                               ?_clear_log 0070  
              __end_of_display_dashboard 08ED                                main@F1093 01A6  
                              main@F1095 00E7      eeprom_at24c04_byte_write@memory_loc 0076  
                          download_log@i 002E                              __stringbase 1180  
                     __end_of_change_pwd 1000                                main@event 01CC  
                              main@speed 01D0                              ??_i2c_start 0072  
                     __end_of_clcd_print 13EE                              ??_i2c_write 0072  
                     __end_of_clcd_putch 1283                       __end_of_clcd_write 12D6  
                             ?_init_clcd 0070                           ??_write_ds1307 0074  
                             ?_log_event 0070                      _init_digital_keypad 1190  
                               _i2c_read 12D6                                 _i2c_stop 11AE  
eeprom_at24c04_randon_read@received_data 0075                            set_time@blink 0058  
                          set_time@dummy 002D                            set_time@temp1 00BE  
                   set_time@set_time_arr 0039                     ?_init_digital_keypad 0070  
                            _init_ds1307 1248                             ??_init_uarts 002A  
                     __end_of__stringtab 1180                              _read_ds1307 1369  
                      set_time@min_count 00C1                              _init_config 14B2  
                   view_log@control_flag 0026                        set_time@sec_count 00C0  
                            change_pwd@i 0043                              change_pwd@j 00B3  
                           ??_login_menu 0026                              change_pwd@s 003F  
                            _init_timer2 11FA               ??_eeprom_at24c04_str_write 0079  
                               _clear_lg 004C                          ___lwdiv@divisor 0076  
                               _chng_pwd 004D                              _re_chng_pwd 00C7  
                        ___lwdiv@counter 0021                                 __ptext10 152A  
                               __ptext11 14B2                                 __ptext20 1690  
                               __ptext12 141D                                 __ptext21 1196  
                               __ptext13 11FA                                 __ptext30 0974  
                               __ptext22 0A20                                 __ptext14 1480  
                               __ptext31 1369                                 __ptext23 131C  
                               __ptext15 1798                                 __ptext40 1342  
                               __ptext32 11CC                                 __ptext24 11D7  
                               __ptext16 1248                                 __ptext41 11C1  
                               __ptext33 12D6                                 __ptext25 1394  
                               __ptext17 1298                                 __ptext50 15AF  
                               __ptext42 11AE                                 __ptext34 173F  
                               __ptext26 1283                                 __ptext18 1190  
                               __ptext43 11A5                                 __ptext35 0818  
                               __ptext27 0881                                 __ptext19 11E2  
                               __ptext44 11ED                                 __ptext36 1225  
                               __ptext28 144E                                 __ptext45 1214  
                               __ptext37 0E25                                 __ptext29 163E  
                               __ptext46 126E                                 __ptext38 14EC  
           eeprom_at24c04_str_write@data 0077                                 __ptext47 13BF  
                               __ptext39 13EE                                 __ptext48 12B6  
                               __ptext49 1569                                 _get_time 0974  
                      login@attempts_rem 0057                               strcpy@from 0072  
                         init_uarts@baud 0026                                 _init_i2c 1480  
                               _init_adc 1196                                 _dwnld_lg 00C6  
                               _read_adc 1236                  read_digital_keypad@mode 0070  
                read_digital_keypad@once 007B                       __end_of_init_uarts 144E  
                             strncmp@len 0073                    __end_of_log_car_event 173F  
                            ??_clear_log 0072                            ?_clear_screen 0070  
                               _set_time 049A                                 _overflow 004A  
                     __end_of_login_menu 07FE                                 _view_log 0CB4  
                               _view_pos 00C5                    ??_init_digital_keypad 0072  
                               _putcharr 11D7                                 main@gear 01BC  
                              view_log@i 002E                                 isr@count 00B1  
                           set_time@flag 0048                             set_time@temp 00BF  
                           set_time@wait 0047                                 init_ram0 125F  
                            ??_init_clcd 0078                                 login@key 0029  
                            ??_log_event 0021                                 intlevel1 0000  
     __end_of_eeprom_at24c04_randon_read 13BF               _eeprom_at24c04_randon_read 1394  
                       ___lldiv@dividend 0076                                strncmp@s1 0077  
                              strncmp@s2 0072                                stringcode 1178  
                         ??_clear_screen 0076                                strncpy@cp 0021  
                              strncpy@to 0020        __end_of_eeprom_at24c04_byte_write 1369  
                   __end_of_write_ds1307 12B6                      _read_digital_keypad 08ED  
                               strcmp@s1 0077                                 strcmp@s2 0072  
                       ___lldiv@quotient 0021                                 strcpy@cp 0075  
                               strcpy@to 0076                                 stringtab 116E  
                            _return_time 005C                     ?_read_digital_keypad 0070  
                       write_ds1307@addr 0074                         write_ds1307@data 0073  
                           _view_log_arr 00A0                         download_log@addr 002B  
                        download_log@new 002C                          download_log@num 0051  
